(lp1
(iwrapper_utilities.class_data
CppClass
p2
(dp3
S'pointer_return_methods'
p4
NsS'name_replacements'
p5
(dp6
S'std::string'
p7
S'String'
p8
sS'c_vector'
p9
S'CVector'
p10
sS'std::set'
p11
S'Set'
p12
sS'std::pair'
p13
S'Pair'
p14
sS'std::map'
p15
S'Map'
p16
sS'boost::shared_ptr'
p17
S'SharedPtr'
p18
sS'std::vector'
p19
S'Vector'
p20
sS'*'
S'Ptr'
p21
sS'unsigned'
p22
S'Unsigned'
p23
sS'unsigned int'
p24
g23
sS'double'
p25
S'Double'
p26
sS'Unsigned int'
p27
g23
ssS'name'
p28
S'std::string'
p29
sS'include_ptr_self'
p30
I00
sS'include_raw_ptr_self'
p31
I00
sS'declaration_code'
p32
NsS'component'
p33
S'extra'
p34
sS'needs_include_file'
p35
I00
sS'needs_instantiation'
p36
I00
sS'skip_wrapping'
p37
I01
sS'excluded_variables'
p38
NsS'template_args'
p39
NsS'excluded_methods'
p40
NsS'name_override'
p41
NsS'include_vec_ptr_self'
p42
I00
sS'full_path'
p43
NsS'include_file_only'
p44
I00
sba(iwrapper_utilities.class_data
CppClass
p45
(dp46
g4
Nsg5
(dp47
g7
g8
sg9
g10
sg11
g12
sg13
g14
sg15
g16
sg17
g18
sg19
g20
sS'*'
g21
sg22
g23
sg24
g23
sg25
g26
sg27
g23
ssg28
S'std::map'
p48
sg30
I00
sg31
I00
sg32
Nsg33
g34
sg35
I00
sg36
I00
sg37
I01
sg38
Nsg39
(lp49
(lp50
g29
ag29
aa(lp51
S'std::string, double'
p52
aasg40
Nsg41
Nsg42
I00
sg43
Nsg44
I00
sba(iwrapper_utilities.class_data
CppClass
p53
(dp54
g4
Nsg5
(dp55
g7
g8
sg9
g10
sg11
g12
sg13
g14
sg15
g16
sg17
g18
sg19
g20
sS'*'
g21
sg22
g23
sg24
g23
sg25
g26
sg27
g23
ssg28
S'std::set'
p56
sg30
I00
sg31
I00
sg32
Nsg33
g34
sg35
I00
sg36
I00
sg37
I01
sg38
Nsg39
(lp57
(lp58
g22
aasg40
Nsg41
Nsg42
I00
sg43
Nsg44
I00
sba(iwrapper_utilities.class_data
CppClass
p59
(dp60
g4
Nsg5
(dp61
g7
g8
sg9
g10
sg11
g12
sg13
g14
sg15
g16
sg17
g18
sg19
g20
sS'*'
g21
sg22
g23
sg24
g23
sg25
g26
sg27
g23
ssg28
S'std::pair'
p62
sg30
I00
sg31
I00
sg32
Nsg33
g34
sg35
I00
sg36
I00
sg37
I01
sg38
Nsg39
(lp63
(lp64
S'unsigned int, unsigned int'
p65
aa(lp66
S'std::vector<double>, double'
p67
aasg40
Nsg41
Nsg42
I00
sg43
Nsg44
I00
sba(iwrapper_utilities.class_data
CppClass
p68
(dp69
g4
Nsg5
(dp70
g7
g8
sg9
g10
sg11
g12
sg13
g14
sg15
g16
sg17
g18
sg19
g20
sS'*'
g21
sg22
g23
sg24
g23
sg25
g26
sg27
g23
ssg28
S'std::vector'
p71
sg30
I00
sg31
I00
sg32
Nsg33
g34
sg35
I00
sg36
I00
sg37
I01
sg38
Nsg39
(lp72
(lp73
g25
aa(lp74
g22
aa(lp75
S'int'
p76
aa(lp77
S'bool'
p78
aa(lp79
g29
aa(lp80
S'c_vector<double,3>'
p81
aa(lp82
S'c_vector<double,2>'
p83
aa(lp84
S'c_vector<unsigned,5>'
p85
aa(lp86
S'std::set<unsigned int>'
p87
aa(lp88
S'std::vector<unsigned int>'
p89
aa(lp90
S'std::pair<unsigned int, unsigned int>'
p91
aa(lp92
S'std::pair<std::vector<double>, double>'
p93
aasg40
Nsg41
Nsg42
I00
sg43
Nsg44
I00
sba(iwrapper_utilities.class_data
CppClass
p94
(dp95
g4
Nsg5
(dp96
g7
g8
sg9
g10
sg11
g12
sg13
g14
sg15
g16
sg17
g18
sg19
g20
sS'*'
g21
sg22
g23
sg24
g23
sg25
g26
sg27
g23
ssg28
g9
sg30
I00
sg31
I00
sg32
Nsg33
g34
sg35
I00
sg36
I00
sg37
I01
sg38
Nsg39
(lp97
(lp98
g25
aI2
aa(lp99
g25
aI3
aa(lp100
g22
aI5
aasg40
Nsg41
Nsg42
I00
sg43
Nsg44
I00
sba(iwrapper_utilities.class_data
CppClass
p101
(dp102
g4
Nsg5
(dp103
g7
g8
sg9
g10
sg11
g12
sg13
g14
sg15
g16
sg17
g18
sg19
g20
sS'*'
g21
sg22
g23
sg24
g23
sg25
g26
sg27
g23
ssg28
S'Polygon'
p104
sg30
I00
sg31
I00
sg32
Nsg33
S'geometry'
p105
sg35
I01
sg36
I01
sg37
I00
sg38
Nsg39
(lp106
(lp107
I2
aa(lp108
I3
aasg40
Nsg41
Nsg42
I01
sg43
S'/home/grogan/Chaste/projects/MicrovesselChaste/src/geometry/Polygon.hpp'
p109
sg44
I00
sba(iwrapper_utilities.class_data
CppClass
p110
(dp111
g4
Nsg5
(dp112
g7
g8
sg9
g10
sg11
g12
sg13
g14
sg15
g16
sg17
g18
sg19
g20
sS'*'
g21
sg22
g23
sg24
g23
sg25
g26
sg27
g23
ssg28
S'Facet'
p113
sg30
I00
sg31
I00
sg32
Nsg33
g105
sg35
I01
sg36
I01
sg37
I00
sg38
Nsg39
g106
sg40
Nsg41
Nsg42
I01
sg43
S'/home/grogan/Chaste/projects/MicrovesselChaste/src/geometry/Facet.hpp'
p114
sg44
I00
sba(iwrapper_utilities.class_data
CppClass
p115
(dp116
g4
Nsg5
(dp117
g7
g8
sg9
g10
sg11
g12
sg13
g14
sg15
g16
sg17
g18
sg19
g20
sS'*'
g21
sg22
g23
sg24
g23
sg25
g26
sg27
g23
ssg28
S'Part'
p118
sg30
I00
sg31
I00
sg32
Nsg33
g105
sg35
I01
sg36
I01
sg37
I00
sg38
Nsg39
g106
sg40
Nsg41
Nsg42
I00
sg43
S'/home/grogan/Chaste/projects/MicrovesselChaste/src/geometry/Part.hpp'
p119
sg44
I00
sba(iwrapper_utilities.class_data
CppClass
p120
(dp121
g4
Nsg5
(dp122
g7
g8
sg9
g10
sg11
g12
sg13
g14
sg15
g16
sg17
g18
sg19
g20
sS'*'
g21
sg22
g23
sg24
g23
sg25
g26
sg27
g23
ssg28
S'MappableGridGenerator'
p123
sg30
I00
sg31
I00
sg32
Nsg33
g105
sg35
I01
sg36
I01
sg37
I00
sg38
Nsg39
Nsg40
Nsg41
Nsg42
I00
sg43
S'/home/grogan/Chaste/projects/MicrovesselChaste/src/geometry/generators/MappableGridGenerator.hpp'
p124
sg44
I00
sba(iwrapper_utilities.class_data
CppClass
p125
(dp126
g4
Nsg5
(dp127
g7
g8
sg9
g10
sg11
g12
sg13
g14
sg15
g16
sg17
g18
sg19
g20
sS'*'
g21
sg22
g23
sg24
g23
sg25
g26
sg27
g23
ssg28
S'NetworkToSurface'
p128
sg30
I00
sg31
I00
sg32
Nsg33
g105
sg35
I01
sg36
I01
sg37
I00
sg38
Nsg39
g106
sg40
Nsg41
Nsg42
I00
sg43
S'/home/grogan/Chaste/projects/MicrovesselChaste/src/geometry/generators/NetworkToSurface.hpp'
p129
sg44
I00
sba(iwrapper_utilities.class_data
CppClass
p130
(dp131
g4
Nsg5
(dp132
g7
g8
sg9
g10
sg11
g12
sg13
g14
sg15
g16
sg17
g18
sg19
g20
sS'*'
g21
sg22
g23
sg24
g23
sg25
g26
sg27
g23
ssg28
S'VesselSurfaceGenerator'
p133
sg30
I00
sg31
I00
sg32
Nsg33
g105
sg35
I01
sg36
I01
sg37
I00
sg38
Nsg39
g106
sg40
Nsg41
Nsg42
I00
sg43
S'/home/grogan/Chaste/projects/MicrovesselChaste/src/geometry/generators/VesselSurfaceGenerator.hpp'
p134
sg44
I00
sba(iwrapper_utilities.class_data
CppClass
p135
(dp136
g4
Nsg5
(dp137
g7
g8
sg9
g10
sg11
g12
sg13
g14
sg15
g16
sg17
g18
sg19
g20
sS'*'
g21
sg22
g23
sg24
g23
sg25
g26
sg27
g23
ssg28
S'BoundaryExtractor'
p138
sg30
I00
sg31
I00
sg32
Nsg33
g105
sg35
I01
sg36
I01
sg37
I00
sg38
Nsg39
Nsg40
Nsg41
Nsg42
I00
sg43
S'/home/grogan/Chaste/projects/MicrovesselChaste/src/geometry/tools/BoundaryExtractor.hpp'
p139
sg44
I00
sba(iwrapper_utilities.class_data
CppClass
p140
(dp141
g4
Nsg5
(dp142
g7
g8
sg9
g10
sg11
g12
sg13
g14
sg15
g16
sg17
g18
sg19
g20
sS'*'
g21
sg22
g23
sg24
g23
sg25
g26
sg27
g23
ssg28
S'SurfaceCleaner'
p143
sg30
I00
sg31
I00
sg32
Nsg33
g105
sg35
I01
sg36
I01
sg37
I00
sg38
Nsg39
Nsg40
Nsg41
Nsg42
I00
sg43
S'/home/grogan/Chaste/projects/MicrovesselChaste/src/geometry/tools/SurfaceCleaner.hpp'
p144
sg44
I00
sba(iwrapper_utilities.class_data
CppClass
p145
(dp146
g4
Nsg5
(dp147
g7
g8
sg9
g10
sg11
g12
sg13
g14
sg15
g16
sg17
g18
sg19
g20
sS'*'
g21
sg22
g23
sg24
g23
sg25
g26
sg27
g23
ssg28
S'GeometryFormat'
p148
sg30
I00
sg31
I00
sg32
Nsg33
g105
sg35
I00
sg36
I01
sg37
I00
sg38
Nsg39
Nsg40
Nsg41
Nsg42
I00
sg43
Nsg44
I00
sba(iwrapper_utilities.class_data
CppClass
p149
(dp150
g4
Nsg5
(dp151
g7
g8
sg9
g10
sg11
g12
sg13
g14
sg15
g16
sg17
g18
sg19
g20
sS'*'
g21
sg22
g23
sg24
g23
sg25
g26
sg27
g23
ssg28
S'GeometryWriter'
p152
sg30
I00
sg31
I00
sg32
Nsg33
g105
sg35
I01
sg36
I01
sg37
I00
sg38
Nsg39
Nsg40
Nsg41
Nsg42
I00
sg43
S'/home/grogan/Chaste/projects/MicrovesselChaste/src/geometry/writers/GeometryWriter.hpp'
p153
sg44
I00
sba(iwrapper_utilities.class_data
CppClass
p154
(dp155
g4
Nsg5
(dp156
g7
g8
sg9
g10
sg11
g12
sg13
g14
sg15
g16
sg17
g18
sg19
g20
sS'*'
g21
sg22
g23
sg24
g23
sg25
g26
sg27
g23
ssg28
S'AbstractMesh'
p157
sg30
I00
sg31
I00
sg32
Nsg33
S'mesh'
p158
sg35
I01
sg36
I01
sg37
I00
sg38
Nsg39
(lp159
(lp160
I2
aI2
aa(lp161
I3
aI3
aasg40
Nsg41
Nsg42
I00
sg43
S'/home/grogan/Chaste/mesh/src/common/AbstractMesh.hpp'
p162
sg44
I00
sba(iwrapper_utilities.class_data
CppClass
p163
(dp164
g4
Nsg5
(dp165
g7
g8
sg9
g10
sg11
g12
sg13
g14
sg15
g16
sg17
g18
sg19
g20
sS'*'
g21
sg22
g23
sg24
g23
sg25
g26
sg27
g23
ssg28
S'AbstractTetrahedralMesh'
p166
sg30
I00
sg31
I00
sg32
Nsg33
g158
sg35
I01
sg36
I01
sg37
I00
sg38
Nsg39
g159
sg40
Nsg41
Nsg42
I00
sg43
S'/home/grogan/Chaste/mesh/src/common/AbstractTetrahedralMesh.hpp'
p167
sg44
I00
sba(iwrapper_utilities.class_data
CppClass
p168
(dp169
g4
Nsg5
(dp170
g7
g8
sg9
g10
sg11
g12
sg13
g14
sg15
g16
sg17
g18
sg19
g20
sS'*'
g21
sg22
g23
sg24
g23
sg25
g26
sg27
g23
ssg28
S'TetrahedralMesh'
p171
sg30
I00
sg31
I00
sg32
Nsg33
g158
sg35
I01
sg36
I01
sg37
I00
sg38
Nsg39
g159
sg40
(lp172
S'FreeTriangulateIo'
p173
aS'InitialiseTriangulateIo'
p174
asg41
Nsg42
I00
sg43
S'/home/grogan/Chaste/mesh/src/common/TetrahedralMesh.hpp'
p175
sg44
I00
sba(iwrapper_utilities.class_data
CppClass
p176
(dp177
g4
Nsg5
(dp178
g7
g8
sg9
g10
sg11
g12
sg13
g14
sg15
g16
sg17
g18
sg19
g20
sS'*'
g21
sg22
g23
sg24
g23
sg25
g26
sg27
g23
ssg28
S'AbstractDiscreteContinuumGrid'
p179
sg30
I00
sg31
I00
sg32
Nsg33
g158
sg35
I01
sg36
I01
sg37
I00
sg38
Nsg39
g159
sg40
Nsg41
Nsg42
I00
sg43
S'/home/grogan/Chaste/projects/MicrovesselChaste/src/mesh/AbstractDiscreteContinuumGrid.hpp'
p180
sg44
I00
sba(iwrapper_utilities.class_data
CppClass
p181
(dp182
g4
Nsg5
(dp183
g7
g8
sg9
g10
sg11
g12
sg13
g14
sg15
g16
sg17
g18
sg19
g20
sS'*'
g21
sg22
g23
sg24
g23
sg25
g26
sg27
g23
ssg28
S'DimensionalChastePoint'
p184
sg30
I00
sg31
I00
sg32
Nsg33
g158
sg35
I01
sg36
I01
sg37
I00
sg38
Nsg39
g106
sg40
Nsg41
Nsg42
I01
sg43
S'/home/grogan/Chaste/projects/MicrovesselChaste/src/mesh/DimensionalChastePoint.hpp'
p185
sg44
I00
sba(iwrapper_utilities.class_data
CppClass
p186
(dp187
g4
Nsg5
(dp188
g7
g8
sg9
g10
sg11
g12
sg13
g14
sg15
g16
sg17
g18
sg19
g20
sS'*'
g21
sg22
g23
sg24
g23
sg25
g26
sg27
g23
ssg28
S'DiscreteContinuumMesh'
p189
sg30
I00
sg31
I00
sg32
Nsg33
g158
sg35
I01
sg36
I01
sg37
I00
sg38
Nsg39
g159
sg40
Nsg41
Nsg42
I00
sg43
S'/home/grogan/Chaste/projects/MicrovesselChaste/src/mesh/DiscreteContinuumMesh.hpp'
p190
sg44
I00
sba(iwrapper_utilities.class_data
CppClass
p191
(dp192
g4
Nsg5
(dp193
g7
g8
sg9
g10
sg11
g12
sg13
g14
sg15
g16
sg17
g18
sg19
g20
sS'*'
g21
sg22
g23
sg24
g23
sg25
g26
sg27
g23
ssg28
S'DiscreteContinuumMeshGenerator'
p194
sg30
I00
sg31
I00
sg32
Nsg33
g158
sg35
I01
sg36
I01
sg37
I00
sg38
Nsg39
g159
sg40
Nsg41
Nsg42
I00
sg43
S'/home/grogan/Chaste/projects/MicrovesselChaste/src/mesh/DiscreteContinuumMeshGenerator.hpp'
p195
sg44
I00
sba(iwrapper_utilities.class_data
CppClass
p196
(dp197
g4
Nsg5
(dp198
g7
g8
sg9
g10
sg11
g12
sg13
g14
sg15
g16
sg17
g18
sg19
g20
sS'*'
g21
sg22
g23
sg24
g23
sg25
g26
sg27
g23
ssg28
S'GridCalculator'
p199
sg30
I00
sg31
I00
sg32
Nsg33
g158
sg35
I01
sg36
I01
sg37
I00
sg38
Nsg39
g106
sg40
Nsg41
Nsg42
I00
sg43
S'/home/grogan/Chaste/projects/MicrovesselChaste/src/mesh/GridCalculator.hpp'
p200
sg44
I00
sba(iwrapper_utilities.class_data
CppClass
p201
(dp202
g4
Nsg5
(dp203
g7
g8
sg9
g10
sg11
g12
sg13
g14
sg15
g16
sg17
g18
sg19
g20
sS'*'
g21
sg22
g23
sg24
g23
sg25
g26
sg27
g23
ssg28
S'MeshReader'
p204
sg30
I00
sg31
I00
sg32
Nsg33
g158
sg35
I01
sg36
I01
sg37
I00
sg38
Nsg39
Nsg40
Nsg41
Nsg42
I00
sg43
S'/home/grogan/Chaste/projects/MicrovesselChaste/src/mesh/MeshReader.hpp'
p205
sg44
I00
sba(iwrapper_utilities.class_data
CppClass
p206
(dp207
g4
Nsg5
(dp208
g7
g8
sg9
g10
sg11
g12
sg13
g14
sg15
g16
sg17
g18
sg19
g20
sS'*'
g21
sg22
g23
sg24
g23
sg25
g26
sg27
g23
ssg28
S'MultiFormatMeshWriter'
p209
sg30
I00
sg31
I00
sg32
Nsg33
g158
sg35
I01
sg36
I01
sg37
I00
sg38
Nsg39
g106
sg40
Nsg41
Nsg42
I00
sg43
S'/home/grogan/Chaste/projects/MicrovesselChaste/src/mesh/MultiFormatMeshWriter.hpp'
p210
sg44
I00
sba(iwrapper_utilities.class_data
CppClass
p211
(dp212
g4
Nsg5
(dp213
g7
g8
sg9
g10
sg11
g12
sg13
g14
sg15
g16
sg17
g18
sg19
g20
sS'*'
g21
sg22
g23
sg24
g23
sg25
g26
sg27
g23
ssg28
S'RegularGrid'
p214
sg30
I00
sg31
I00
sg32
Nsg33
g158
sg35
I01
sg36
I01
sg37
I00
sg38
Nsg39
g106
sg40
Nsg41
Nsg42
I00
sg43
S'/home/grogan/Chaste/projects/MicrovesselChaste/src/mesh/RegularGrid.hpp'
p215
sg44
I00
sba(iwrapper_utilities.class_data
CppClass
p216
(dp217
g4
Nsg5
(dp218
g7
g8
sg9
g10
sg11
g12
sg13
g14
sg15
g16
sg17
g18
sg19
g20
sS'*'
g21
sg22
g23
sg24
g23
sg25
g26
sg27
g23
ssg28
S'RegularGridWriter'
p219
sg30
I00
sg31
I00
sg32
Nsg33
g158
sg35
I01
sg36
I01
sg37
I00
sg38
Nsg39
Nsg40
Nsg41
Nsg42
I00
sg43
S'/home/grogan/Chaste/projects/MicrovesselChaste/src/mesh/RegularGridWriter.hpp'
p220
sg44
I00
sba(iwrapper_utilities.class_data
CppClass
p221
(dp222
g4
Nsg5
(dp223
g7
g8
sg9
g10
sg11
g12
sg13
g14
sg15
g16
sg17
g18
sg19
g20
sS'*'
g21
sg22
g23
sg24
g23
sg25
g26
sg27
g23
ssg28
S'MeshFormat'
p224
sg30
I00
sg31
I00
sg32
Nsg33
Nsg35
I00
sg36
I01
sg37
I00
sg38
Nsg39
Nsg40
Nsg41
Nsg42
I00
sg43
Nsg44
I00
sba(iwrapper_utilities.class_data
CppClass
p225
(dp226
g4
Nsg5
(dp227
g7
g8
sg9
g10
sg11
g12
sg13
g14
sg15
g16
sg17
g18
sg19
g20
sS'*'
g21
sg22
g23
sg24
g23
sg25
g26
sg27
g23
ssg28
g71
sg30
I00
sg31
I00
sg32
Nsg33
Nsg35
I00
sg36
I00
sg37
I01
sg38
Nsg39
(lp228
(lp229
S'std::vector<boost::shared_ptr<VesselNode<2> > >'
p230
aa(lp231
S'std::vector<boost::shared_ptr<VesselNode<3> > >'
p232
aa(lp233
S'std::vector<boost::shared_ptr<VesselSegment<2> > >'
p234
aa(lp235
S'std::vector<boost::shared_ptr<VesselSegment<3> > >'
p236
aa(lp237
S'std::vector<boost::shared_ptr<Cell> >'
p238
aa(lp239
S'DimensionalChastePoint2'
p240
aa(lp241
S'DimensionalChastePoint3'
p242
aasg40
Nsg41
Nsg42
I00
sg43
Nsg44
I00
sba(iwrapper_utilities.class_data
CppClass
p243
(dp244
g4
Nsg5
(dp245
g7
g8
sg9
g10
sg11
g12
sg13
g14
sg15
g16
sg17
g18
sg19
g20
sS'*'
g21
sg22
g23
sg24
g23
sg25
g26
sg27
g23
ssg28
g62
sg30
I00
sg31
I00
sg32
Nsg33
Nsg35
I00
sg36
I00
sg37
I01
sg38
Nsg39
(lp246
(lp247
S'DimensionalChastePoint2, DimensionalChastePoint2'
p248
aa(lp249
S'DimensionalChastePoint3, DimensionalChastePoint3'
p250
aasg40
Nsg41
Nsg42
I00
sg43
Nsg44
I00
sba(iwrapper_utilities.class_data
CppClass
p251
(dp252
g4
Nsg5
(dp253
g7
g8
sg9
g10
sg11
g12
sg13
g14
sg15
g16
sg17
g18
sg19
g20
sS'*'
g21
sg22
g23
sg24
g23
sg25
g26
sg27
g23
ssg28
S'AbstractCellKiller'
p254
sg30
I00
sg31
I00
sg32
Nsg33
Nsg35
I01
sg36
I01
sg37
I00
sg38
Nsg39
g106
sg40
Nsg41
Nsg42
I00
sg43
S'/home/grogan/Chaste/cell_based/src/population/killers/AbstractCellKiller.hpp'
p255
sg44
I00
sba(iwrapper_utilities.class_data
CppClass
p256
(dp257
g4
Nsg5
(dp258
g7
g8
sg9
g10
sg11
g12
sg13
g14
sg15
g16
sg17
g18
sg19
g20
sS'*'
g21
sg22
g23
sg24
g23
sg25
g26
sg27
g23
ssg28
S'AbstractCellMutationState'
p259
sg30
I00
sg31
I00
sg32
Nsg33
S'cell'
p260
sg35
I01
sg36
I01
sg37
I00
sg38
Nsg39
Nsg40
Nsg41
Nsg42
I00
sg43
S'/home/grogan/Chaste/cell_based/src/cell/properties/mutations/AbstractCellMutationState.hpp'
p261
sg44
I00
sba(iwrapper_utilities.class_data
CppClass
p262
(dp263
g4
Nsg5
(dp264
g7
g8
sg9
g10
sg11
g12
sg13
g14
sg15
g16
sg17
g18
sg19
g20
sS'*'
g21
sg22
g23
sg24
g23
sg25
g26
sg27
g23
ssg28
S'CancerCellMutationState'
p265
sg30
I00
sg31
I00
sg32
Nsg33
g260
sg35
I01
sg36
I01
sg37
I00
sg38
Nsg39
Nsg40
Nsg41
Nsg42
I00
sg43
S'/home/grogan/Chaste/projects/MicrovesselChaste/src/population/cell/properties/mutations/CancerCellMutationState.hpp'
p266
sg44
I00
sba(iwrapper_utilities.class_data
CppClass
p267
(dp268
g4
Nsg5
(dp269
g7
g8
sg9
g10
sg11
g12
sg13
g14
sg15
g16
sg17
g18
sg19
g20
sS'*'
g21
sg22
g23
sg24
g23
sg25
g26
sg27
g23
ssg28
S'QuiescentCancerCellMutationState'
p270
sg30
I00
sg31
I00
sg32
Nsg33
g260
sg35
I01
sg36
I01
sg37
I00
sg38
Nsg39
Nsg40
Nsg41
Nsg42
I00
sg43
S'/home/grogan/Chaste/projects/MicrovesselChaste/src/population/cell/properties/mutations/QuiescentCancerCellMutationState.hpp'
p271
sg44
I00
sba(iwrapper_utilities.class_data
CppClass
p272
(dp273
g4
Nsg5
(dp274
g7
g8
sg9
g10
sg11
g12
sg13
g14
sg15
g16
sg17
g18
sg19
g20
sS'*'
g21
sg22
g23
sg24
g23
sg25
g26
sg27
g23
ssg28
S'StalkCellMutationState'
p275
sg30
I00
sg31
I00
sg32
Nsg33
g260
sg35
I01
sg36
I01
sg37
I00
sg38
Nsg39
Nsg40
Nsg41
Nsg42
I00
sg43
S'/home/grogan/Chaste/projects/MicrovesselChaste/src/population/cell/properties/mutations/StalkCellMutationState.hpp'
p276
sg44
I00
sba(iwrapper_utilities.class_data
CppClass
p277
(dp278
g4
Nsg5
(dp279
g7
g8
sg9
g10
sg11
g12
sg13
g14
sg15
g16
sg17
g18
sg19
g20
sS'*'
g21
sg22
g23
sg24
g23
sg25
g26
sg27
g23
ssg28
S'TipCellMutationState'
p280
sg30
I00
sg31
I00
sg32
Nsg33
g260
sg35
I01
sg36
I01
sg37
I00
sg38
Nsg39
Nsg40
Nsg41
Nsg42
I00
sg43
S'/home/grogan/Chaste/projects/MicrovesselChaste/src/population/cell/properties/mutations/TipCellMutationState.hpp'
p281
sg44
I00
sba(iwrapper_utilities.class_data
CppClass
p282
(dp283
g4
Nsg5
(dp284
g7
g8
sg9
g10
sg11
g12
sg13
g14
sg15
g16
sg17
g18
sg19
g20
sS'*'
g21
sg22
g23
sg24
g23
sg25
g26
sg27
g23
ssg28
S'VesselCellMutationState'
p285
sg30
I00
sg31
I00
sg32
Nsg33
g260
sg35
I01
sg36
I01
sg37
I00
sg38
Nsg39
Nsg40
Nsg41
Nsg42
I00
sg43
S'/home/grogan/Chaste/projects/MicrovesselChaste/src/population/cell/properties/mutations/VesselCellMutationState.hpp'
p286
sg44
I00
sba(iwrapper_utilities.class_data
CppClass
p287
(dp288
g4
Nsg5
(dp289
g7
g8
sg9
g10
sg11
g12
sg13
g14
sg15
g16
sg17
g18
sg19
g20
sS'*'
g21
sg22
g23
sg24
g23
sg25
g26
sg27
g23
ssg28
S'MacrophageMutationState'
p290
sg30
I00
sg31
I00
sg32
Nsg33
g260
sg35
I01
sg36
I01
sg37
I00
sg38
Nsg39
Nsg40
Nsg41
Nsg42
I00
sg43
S'/home/grogan/Chaste/projects/MicrovesselChaste/src/population/cell/properties/mutations/MacrophageMutationState.hpp'
p291
sg44
I00
sba(iwrapper_utilities.class_data
CppClass
p292
(dp293
g4
Nsg5
(dp294
g7
g8
sg9
g10
sg11
g12
sg13
g14
sg15
g16
sg17
g18
sg19
g20
sS'*'
g21
sg22
g23
sg24
g23
sg25
g26
sg27
g23
ssg28
S'Owen2011OxygenBasedCellCycleModel'
p295
sg30
I00
sg31
I00
sg32
Nsg33
g260
sg35
I01
sg36
I01
sg37
I00
sg38
Nsg39
Nsg40
Nsg41
Nsg42
I00
sg43
S'/home/grogan/Chaste/projects/MicrovesselChaste/src/population/cell/cycle/Owen2011OxygenBasedCellCycleModel.hpp'
p296
sg44
I00
sba(iwrapper_utilities.class_data
CppClass
p297
(dp298
g4
Nsg5
(dp299
g7
g8
sg9
g10
sg11
g12
sg13
g14
sg15
g16
sg17
g18
sg19
g20
sS'*'
g21
sg22
g23
sg24
g23
sg25
g26
sg27
g23
ssg28
S'Owen11CellPopulationGenerator'
p300
sg30
I00
sg31
I00
sg32
Nsg33
g260
sg35
I01
sg36
I01
sg37
I00
sg38
Nsg39
g106
sg40
Nsg41
Nsg42
I00
sg43
S'/home/grogan/Chaste/projects/MicrovesselChaste/src/population/cell/Owen11CellPopulationGenerator.hpp'
p301
sg44
I00
sba(iwrapper_utilities.class_data
CppClass
p302
(dp303
g4
Nsg5
(dp304
g7
g8
sg9
g10
sg11
g12
sg13
g14
sg15
g16
sg17
g18
sg19
g20
sS'*'
g21
sg22
g23
sg24
g23
sg25
g26
sg27
g23
ssg28
S'CaBasedCellPopulation'
p305
sg30
I00
sg31
I00
sg32
Nsg33
Nsg35
I01
sg36
I01
sg37
I00
sg38
Nsg39
g106
sg40
Nsg41
Nsg42
I00
sg43
S'/home/grogan/Chaste/cell_based/src/population/CaBasedCellPopulation.hpp'
p306
sg44
I00
sba(iwrapper_utilities.class_data
CppClass
p307
(dp308
g4
Nsg5
(dp309
g7
g8
sg9
g10
sg11
g12
sg13
g14
sg15
g16
sg17
g18
sg19
g20
sS'*'
g21
sg22
g23
sg24
g23
sg25
g26
sg27
g23
ssg28
S'LQRadiotherapyCellKiller'
p310
sg30
I00
sg31
I00
sg32
Nsg33
g260
sg35
I01
sg36
I01
sg37
I00
sg38
Nsg39
g106
sg40
Nsg41
Nsg42
I00
sg43
S'/home/grogan/Chaste/projects/MicrovesselChaste/src/population/cell/killers/LQRadiotherapyCellKiller.hpp'
p311
sg44
I00
sba(iwrapper_utilities.class_data
CppClass
p312
(dp313
g4
Nsg5
(dp314
g7
g8
sg9
g10
sg11
g12
sg13
g14
sg15
g16
sg17
g18
sg19
g20
sS'*'
g21
sg22
g23
sg24
g23
sg25
g26
sg27
g23
ssg28
S'Owen11CaBasedDivisionRule'
p315
sg30
I00
sg31
I00
sg32
Nsg33
g260
sg35
I01
sg36
I01
sg37
I00
sg38
Nsg39
g106
sg40
Nsg41
Nsg42
I00
sg43
S'/home/grogan/Chaste/projects/MicrovesselChaste/src/population/cell/Owen11CaBasedDivisionRule.hpp'
p316
sg44
I00
sba(iwrapper_utilities.class_data
CppClass
p317
(dp318
g4
Nsg5
(dp319
g7
g8
sg9
g10
sg11
g12
sg13
g14
sg15
g16
sg17
g18
sg19
g20
sS'*'
g21
sg22
g23
sg24
g23
sg25
g26
sg27
g23
ssg28
S'Owen11CaUpdateRule'
p320
sg30
I00
sg31
I00
sg32
Nsg33
g260
sg35
I01
sg36
I01
sg37
I00
sg38
Nsg39
g106
sg40
Nsg41
Nsg42
I00
sg43
S'/home/grogan/Chaste/projects/MicrovesselChaste/src/population/cell/Owen11CaUpdateRule.hpp'
p321
sg44
I00
sba(iwrapper_utilities.class_data
CppClass
p322
(dp323
g4
Nsg5
(dp324
g7
g8
sg9
g10
sg11
g12
sg13
g14
sg15
g16
sg17
g18
sg19
g20
sS'*'
g21
sg22
g23
sg24
g23
sg25
g26
sg27
g23
ssg28
S'TipAttractionLatticeBasedMigrationRule'
p325
sg30
I00
sg31
I00
sg32
Nsg33
S'angiogenesis'
p326
sg35
I01
sg36
I01
sg37
I00
sg38
Nsg39
g106
sg40
Nsg41
Nsg42
I00
sg43
S'/home/grogan/Chaste/projects/MicrovesselChaste/src/simulation/angiogenesis/migration_rules/lattice/TipAttractionLatticeBasedMigrationRule.hpp'
p327
sg44
I00
sba(iwrapper_utilities.class_data
CppClass
p328
(dp329
g4
Nsg5
(dp330
g7
g8
sg9
g10
sg11
g12
sg13
g14
sg15
g16
sg17
g18
sg19
g20
sS'*'
g21
sg22
g23
sg24
g23
sg25
g26
sg27
g23
ssg28
S'AngiogenesisSolver'
p331
sg30
I00
sg31
I00
sg32
Nsg33
g326
sg35
I01
sg36
I01
sg37
I00
sg38
Nsg39
g106
sg40
Nsg41
Nsg42
I00
sg43
S'/home/grogan/Chaste/projects/MicrovesselChaste/src/simulation/angiogenesis/AngiogenesisSolver.hpp'
p332
sg44
I00
sba(iwrapper_utilities.class_data
CppClass
p333
(dp334
g4
Nsg5
(dp335
g7
g8
sg9
g10
sg11
g12
sg13
g14
sg15
g16
sg17
g18
sg19
g20
sS'*'
g21
sg22
g23
sg24
g23
sg25
g26
sg27
g23
ssg28
S'Owen2011MigrationRule'
p336
sg30
I00
sg31
I00
sg32
Nsg33
g326
sg35
I01
sg36
I01
sg37
I00
sg38
Nsg39
g106
sg40
Nsg41
Nsg42
I00
sg43
S'/home/grogan/Chaste/projects/MicrovesselChaste/src/simulation/angiogenesis/migration_rules/lattice/Owen2011MigrationRule.hpp'
p337
sg44
I00
sba(iwrapper_utilities.class_data
CppClass
p338
(dp339
g4
Nsg5
(dp340
g7
g8
sg9
g10
sg11
g12
sg13
g14
sg15
g16
sg17
g18
sg19
g20
sS'*'
g21
sg22
g23
sg24
g23
sg25
g26
sg27
g23
ssg28
S'Owen2011SproutingRule'
p341
sg30
I00
sg31
I00
sg32
Nsg33
g326
sg35
I01
sg36
I01
sg37
I00
sg38
Nsg39
g106
sg40
Nsg41
Nsg42
I00
sg43
S'/home/grogan/Chaste/projects/MicrovesselChaste/src/simulation/angiogenesis/sprouting_rules/Owen2011SproutingRule.hpp'
p342
sg44
I00
sba(iwrapper_utilities.class_data
CppClass
p343
(dp344
g4
Nsg5
(dp345
g7
g8
sg9
g10
sg11
g12
sg13
g14
sg15
g16
sg17
g18
sg19
g20
sS'*'
g21
sg22
g23
sg24
g23
sg25
g26
sg27
g23
ssg28
S'OffLatticeMigrationRule'
p346
sg30
I00
sg31
I00
sg32
Nsg33
g326
sg35
I01
sg36
I01
sg37
I00
sg38
Nsg39
g106
sg40
Nsg41
Nsg42
I00
sg43
S'/home/grogan/Chaste/projects/MicrovesselChaste/src/simulation/angiogenesis/migration_rules/off_lattice/OffLatticeMigrationRule.hpp'
p347
sg44
I00
sba(iwrapper_utilities.class_data
CppClass
p348
(dp349
g4
Nsg5
(dp350
g7
g8
sg9
g10
sg11
g12
sg13
g14
sg15
g16
sg17
g18
sg19
g20
sS'*'
g21
sg22
g23
sg24
g23
sg25
g26
sg27
g23
ssg28
S'OffLatticeSproutingRule'
p351
sg30
I00
sg31
I00
sg32
Nsg33
g326
sg35
I01
sg36
I01
sg37
I00
sg38
Nsg39
g106
sg40
Nsg41
Nsg42
I00
sg43
S'/home/grogan/Chaste/projects/MicrovesselChaste/src/simulation/angiogenesis/sprouting_rules/OffLatticeSproutingRule.hpp'
p352
sg44
I00
sba(iwrapper_utilities.class_data
CppClass
p353
(dp354
g4
Nsg5
(dp355
g7
g8
sg9
g10
sg11
g12
sg13
g14
sg15
g16
sg17
g18
sg19
g20
sS'*'
g21
sg22
g23
sg24
g23
sg25
g26
sg27
g23
ssg28
S'AbstractMigrationRule'
p356
sg30
I00
sg31
I00
sg32
Nsg33
g326
sg35
I01
sg36
I01
sg37
I00
sg38
Nsg39
g106
sg40
Nsg41
Nsg42
I00
sg43
S'/home/grogan/Chaste/projects/MicrovesselChaste/src/simulation/angiogenesis/migration_rules/AbstractMigrationRule.hpp'
p357
sg44
I00
sba(iwrapper_utilities.class_data
CppClass
p358
(dp359
g4
Nsg5
(dp360
g7
g8
sg9
g10
sg11
g12
sg13
g14
sg15
g16
sg17
g18
sg19
g20
sS'*'
g21
sg22
g23
sg24
g23
sg25
g26
sg27
g23
ssg28
S'AbstractSproutingRule'
p361
sg30
I00
sg31
I00
sg32
Nsg33
g326
sg35
I01
sg36
I01
sg37
I00
sg38
Nsg39
g106
sg40
Nsg41
Nsg42
I00
sg43
S'/home/grogan/Chaste/projects/MicrovesselChaste/src/simulation/angiogenesis/sprouting_rules/AbstractSproutingRule.hpp'
p362
sg44
I00
sba(iwrapper_utilities.class_data
CppClass
p363
(dp364
g4
Nsg5
(dp365
g7
g8
sg9
g10
sg11
g12
sg13
g14
sg15
g16
sg17
g18
sg19
g20
sS'*'
g21
sg22
g23
sg24
g23
sg25
g26
sg27
g23
ssg28
S'LatticeBasedMigrationRule'
p366
sg30
I00
sg31
I00
sg32
Nsg33
g326
sg35
I01
sg36
I01
sg37
I00
sg38
Nsg39
g106
sg40
Nsg41
Nsg42
I00
sg43
S'/home/grogan/Chaste/projects/MicrovesselChaste/src/simulation/angiogenesis/migration_rules/lattice/LatticeBasedMigrationRule.hpp'
p367
sg44
I00
sba(iwrapper_utilities.class_data
CppClass
p368
(dp369
g4
Nsg5
(dp370
g7
g8
sg9
g10
sg11
g12
sg13
g14
sg15
g16
sg17
g18
sg19
g20
sS'*'
g21
sg22
g23
sg24
g23
sg25
g26
sg27
g23
ssg28
S'CellPopulationMigrationRule'
p371
sg30
I00
sg31
I00
sg32
Nsg33
g326
sg35
I01
sg36
I01
sg37
I00
sg38
Nsg39
g106
sg40
Nsg41
Nsg42
I00
sg43
S'/home/grogan/Chaste/projects/MicrovesselChaste/src/simulation/angiogenesis/migration_rules/lattice/CellPopulationMigrationRule.hpp'
p372
sg44
I00
sba(iwrapper_utilities.class_data
CppClass
p373
(dp374
g4
Nsg5
(dp375
g7
g8
sg9
g10
sg11
g12
sg13
g14
sg15
g16
sg17
g18
sg19
g20
sS'*'
g21
sg22
g23
sg24
g23
sg25
g26
sg27
g23
ssg28
S'RegressionSolver'
p376
sg30
I00
sg31
I00
sg32
Nsg33
g326
sg35
I01
sg36
I01
sg37
I00
sg38
Nsg39
g106
sg40
Nsg41
Nsg42
I00
sg43
S'/home/grogan/Chaste/projects/MicrovesselChaste/src/simulation/angiogenesis/regression/RegressionSolver.hpp'
p377
sg44
I00
sba(iwrapper_utilities.class_data
CppClass
p378
(dp379
g4
Nsg5
(dp380
g7
g8
sg9
g10
sg11
g12
sg13
g14
sg15
g16
sg17
g18
sg19
g20
sS'*'
g21
sg22
g23
sg24
g23
sg25
g26
sg27
g23
ssg28
S'WallShearStressBasedRegressionSolver'
p381
sg30
I00
sg31
I00
sg32
Nsg33
g326
sg35
I01
sg36
I01
sg37
I00
sg38
Nsg39
g106
sg40
Nsg41
Nsg42
I00
sg43
S'/home/grogan/Chaste/projects/MicrovesselChaste/src/simulation/angiogenesis/regression/WallShearStressBasedRegressionSolver.hpp'
p382
sg44
I00
sba(iwrapper_utilities.class_data
CppClass
p383
(dp384
g4
Nsg5
(dp385
g7
g8
sg9
g10
sg11
g12
sg13
g14
sg15
g16
sg17
g18
sg19
g20
sS'*'
g21
sg22
g23
sg24
g23
sg25
g26
sg27
g23
ssg28
S'LatticeBasedSproutingRule'
p386
sg30
I00
sg31
I00
sg32
Nsg33
g326
sg35
I01
sg36
I01
sg37
I00
sg38
Nsg39
g106
sg40
Nsg41
Nsg42
I00
sg43
S'/home/grogan/Chaste/projects/MicrovesselChaste/src/simulation/angiogenesis/sprouting_rules/LatticeBasedSproutingRule.hpp'
p387
sg44
I00
sba(iwrapper_utilities.class_data
CppClass
p388
(dp389
g4
Nsg5
(dp390
g7
g8
sg9
g10
sg11
g12
sg13
g14
sg15
g16
sg17
g18
sg19
g20
sS'*'
g21
sg22
g23
sg24
g23
sg25
g26
sg27
g23
ssg28
S'DiscreteContinuumBoundaryCondition'
p391
sg30
I00
sg31
I00
sg32
Nsg33
S'pde'
p392
sg35
I01
sg36
I01
sg37
I00
sg38
Nsg39
g106
sg40
Nsg41
Nsg42
I00
sg43
S'/home/grogan/Chaste/projects/MicrovesselChaste/src/pde/boundary_conditions/DiscreteContinuumBoundaryCondition.hpp'
p393
sg44
I00
sba(iwrapper_utilities.class_data
CppClass
p394
(dp395
g4
Nsg5
(dp396
g7
g8
sg9
g10
sg11
g12
sg13
g14
sg15
g16
sg17
g18
sg19
g20
sS'*'
g21
sg22
g23
sg24
g23
sg25
g26
sg27
g23
ssg28
S'DiscreteSource'
p397
sg30
I00
sg31
I00
sg32
Nsg33
g392
sg35
I01
sg36
I01
sg37
I00
sg38
Nsg39
g106
sg40
Nsg41
Nsg42
I01
sg43
S'/home/grogan/Chaste/projects/MicrovesselChaste/src/pde/discrete_sources/DiscreteSource.hpp'
p398
sg44
I00
sba(iwrapper_utilities.class_data
CppClass
p399
(dp400
g4
Nsg5
(dp401
g7
g8
sg9
g10
sg11
g12
sg13
g14
sg15
g16
sg17
g18
sg19
g20
sS'*'
g21
sg22
g23
sg24
g23
sg25
g26
sg27
g23
ssg28
S'CellStateDependentDiscreteSource'
p402
sg30
I00
sg31
I00
sg32
Nsg33
g392
sg35
I01
sg36
I01
sg37
I00
sg38
Nsg39
g106
sg40
Nsg41
Nsg42
I00
sg43
S'/home/grogan/Chaste/projects/MicrovesselChaste/src/pde/discrete_sources/CellStateDependentDiscreteSource.hpp'
p403
sg44
I00
sba(iwrapper_utilities.class_data
CppClass
p404
(dp405
g4
Nsg5
(dp406
g7
g8
sg9
g10
sg11
g12
sg13
g14
sg15
g16
sg17
g18
sg19
g20
sS'*'
g21
sg22
g23
sg24
g23
sg25
g26
sg27
g23
ssg28
S'CellBasedDiscreteSource'
p407
sg30
I00
sg31
I00
sg32
Nsg33
g392
sg35
I01
sg36
I01
sg37
I00
sg38
Nsg39
g106
sg40
Nsg41
Nsg42
I00
sg43
S'/home/grogan/Chaste/projects/MicrovesselChaste/src/pde/discrete_sources/CellBasedDiscreteSource.hpp'
p408
sg44
I00
sba(iwrapper_utilities.class_data
CppClass
p409
(dp410
g4
Nsg5
(dp411
g7
g8
sg9
g10
sg11
g12
sg13
g14
sg15
g16
sg17
g18
sg19
g20
sS'*'
g21
sg22
g23
sg24
g23
sg25
g26
sg27
g23
ssg28
S'SolutionDependentDiscreteSource'
p412
sg30
I00
sg31
I00
sg32
Nsg33
g392
sg35
I01
sg36
I01
sg37
I00
sg38
Nsg39
g106
sg40
Nsg41
Nsg42
I00
sg43
S'/home/grogan/Chaste/projects/MicrovesselChaste/src/pde/discrete_sources/SolutionDependentDiscreteSource.hpp'
p413
sg44
I00
sba(iwrapper_utilities.class_data
CppClass
p414
(dp415
g4
Nsg5
(dp416
g7
g8
sg9
g10
sg11
g12
sg13
g14
sg15
g16
sg17
g18
sg19
g20
sS'*'
g21
sg22
g23
sg24
g23
sg25
g26
sg27
g23
ssg28
S'VesselBasedDiscreteSource'
p417
sg30
I00
sg31
I00
sg32
Nsg33
g392
sg35
I01
sg36
I01
sg37
I00
sg38
Nsg39
g106
sg40
Nsg41
Nsg42
I00
sg43
S'/home/grogan/Chaste/projects/MicrovesselChaste/src/pde/discrete_sources/VesselBasedDiscreteSource.hpp'
p418
sg44
I00
sba(iwrapper_utilities.class_data
CppClass
p419
(dp420
g4
Nsg5
(dp421
g7
g8
sg9
g10
sg11
g12
sg13
g14
sg15
g16
sg17
g18
sg19
g20
sS'*'
g21
sg22
g23
sg24
g23
sg25
g26
sg27
g23
ssg28
S'AbstractDiscreteContinuumPde'
p422
sg30
I00
sg31
I00
sg32
Nsg33
g392
sg35
I01
sg36
I01
sg37
I00
sg38
Nsg39
g159
sg40
Nsg41
Nsg42
I00
sg43
S'/home/grogan/Chaste/projects/MicrovesselChaste/src/pde/problem/AbstractDiscreteContinuumPde.hpp'
p423
sg44
I00
sba(iwrapper_utilities.class_data
CppClass
p424
(dp425
g4
Nsg5
(dp426
g7
g8
sg9
g10
sg11
g12
sg13
g14
sg15
g16
sg17
g18
sg19
g20
sS'*'
g21
sg22
g23
sg24
g23
sg25
g26
sg27
g23
ssg28
S'AbstractDiscreteContinuumLinearEllipticPde'
p427
sg30
I00
sg31
I00
sg32
Nsg33
g392
sg35
I01
sg36
I01
sg37
I00
sg38
Nsg39
g159
sg40
Nsg41
Nsg42
I00
sg43
S'/home/grogan/Chaste/projects/MicrovesselChaste/src/pde/problem/linear_elliptic/AbstractDiscreteContinuumLinearEllipticPde.hpp'
p428
sg44
I00
sba(iwrapper_utilities.class_data
CppClass
p429
(dp430
g4
Nsg5
(dp431
g7
g8
sg9
g10
sg11
g12
sg13
g14
sg15
g16
sg17
g18
sg19
g20
sS'*'
g21
sg22
g23
sg24
g23
sg25
g26
sg27
g23
ssg28
S'DiscreteContinuumLinearEllipticPde'
p432
sg30
I00
sg31
I00
sg32
Nsg33
g392
sg35
I01
sg36
I01
sg37
I00
sg38
Nsg39
g159
sg40
Nsg41
Nsg42
I00
sg43
S'/home/grogan/Chaste/projects/MicrovesselChaste/src/pde/problem/linear_elliptic/DiscreteContinuumLinearEllipticPde.hpp'
p433
sg44
I00
sba(iwrapper_utilities.class_data
CppClass
p434
(dp435
g4
Nsg5
(dp436
g7
g8
sg9
g10
sg11
g12
sg13
g14
sg15
g16
sg17
g18
sg19
g20
sS'*'
g21
sg22
g23
sg24
g23
sg25
g26
sg27
g23
ssg28
S'AbstractDiscreteContinuumNonLinearEllipticPde'
p437
sg30
I00
sg31
I00
sg32
Nsg33
g392
sg35
I01
sg36
I01
sg37
I00
sg38
Nsg39
g159
sg40
Nsg41
Nsg42
I00
sg43
S'/home/grogan/Chaste/projects/MicrovesselChaste/src/pde/problem/nonlinear_elliptic/AbstractDiscreteContinuumNonLinearEllipticPde.hpp'
p438
sg44
I00
sba(iwrapper_utilities.class_data
CppClass
p439
(dp440
g4
Nsg5
(dp441
g7
g8
sg9
g10
sg11
g12
sg13
g14
sg15
g16
sg17
g18
sg19
g20
sS'*'
g21
sg22
g23
sg24
g23
sg25
g26
sg27
g23
ssg28
S'MichaelisMentenSteadyStateDiffusionReactionPde'
p442
sg30
I00
sg31
I00
sg32
Nsg33
g392
sg35
I01
sg36
I01
sg37
I00
sg38
Nsg39
g159
sg40
Nsg41
Nsg42
I00
sg43
S'/home/grogan/Chaste/projects/MicrovesselChaste/src/pde/problem/nonlinear_elliptic/MichaelisMentenSteadyStateDiffusionReactionPde.hpp'
p443
sg44
I00
sba(iwrapper_utilities.class_data
CppClass
p444
(dp445
g4
Nsg5
(dp446
g7
g8
sg9
g10
sg11
g12
sg13
g14
sg15
g16
sg17
g18
sg19
g20
sS'*'
g21
sg22
g23
sg24
g23
sg25
g26
sg27
g23
ssg28
S'AbstractDiscreteContinuumParabolicPde'
p447
sg30
I00
sg31
I00
sg32
Nsg33
g392
sg35
I01
sg36
I01
sg37
I00
sg38
Nsg39
g159
sg40
Nsg41
Nsg42
I00
sg43
S'/home/grogan/Chaste/projects/MicrovesselChaste/src/pde/problem/parabolic/AbstractDiscreteContinuumParabolicPde.hpp'
p448
sg44
I00
sba(iwrapper_utilities.class_data
CppClass
p449
(dp450
g4
Nsg5
(dp451
g7
g8
sg9
g10
sg11
g12
sg13
g14
sg15
g16
sg17
g18
sg19
g20
sS'*'
g21
sg22
g23
sg24
g23
sg25
g26
sg27
g23
ssg28
S'ParabolicDiffusionReactionPde'
p452
sg30
I00
sg31
I00
sg32
Nsg33
g392
sg35
I01
sg36
I01
sg37
I00
sg38
Nsg39
g159
sg40
Nsg41
Nsg42
I00
sg43
S'/home/grogan/Chaste/projects/MicrovesselChaste/src/pde/problem/parabolic/ParabolicDiffusionReactionPde.hpp'
p453
sg44
I00
sba(iwrapper_utilities.class_data
CppClass
p454
(dp455
g4
Nsg5
(dp456
g7
g8
sg9
g10
sg11
g12
sg13
g14
sg15
g16
sg17
g18
sg19
g20
sS'*'
g21
sg22
g23
sg24
g23
sg25
g26
sg27
g23
ssg28
S'CoupledVegfPelletDiffusionReactionPde'
p457
sg30
I00
sg31
I00
sg32
Nsg33
g392
sg35
I01
sg36
I01
sg37
I00
sg38
Nsg39
g159
sg40
Nsg41
Nsg42
I00
sg43
S'/home/grogan/Chaste/projects/MicrovesselChaste/src/pde/problem/parabolic/CoupledVegfPelletDiffusionReactionPde.hpp'
p458
sg44
I00
sba(iwrapper_utilities.class_data
CppClass
p459
(dp460
g4
Nsg5
(dp461
g7
g8
sg9
g10
sg11
g12
sg13
g14
sg15
g16
sg17
g18
sg19
g20
sS'*'
g21
sg22
g23
sg24
g23
sg25
g26
sg27
g23
ssg28
S'AbstractDiscreteContinuumSolver'
p462
sg30
I00
sg31
I00
sg32
Nsg33
g392
sg35
I01
sg36
I01
sg37
I00
sg38
Nsg39
g106
sg40
Nsg41
Nsg42
I01
sg43
S'/home/grogan/Chaste/projects/MicrovesselChaste/src/pde/solvers/AbstractDiscreteContinuumSolver.hpp'
p463
sg44
I00
sba(iwrapper_utilities.class_data
CppClass
p464
(dp465
g4
Nsg5
(dp466
g7
g8
sg9
g10
sg11
g12
sg13
g14
sg15
g16
sg17
g18
sg19
g20
sS'*'
g21
sg22
g23
sg24
g23
sg25
g26
sg27
g23
ssg28
S'AbstractRegularGridDiscreteContinuumSolver'
p467
sg30
I00
sg31
I00
sg32
Nsg33
g392
sg35
I01
sg36
I01
sg37
I00
sg38
Nsg39
g106
sg40
Nsg41
Nsg42
I00
sg43
S'/home/grogan/Chaste/projects/MicrovesselChaste/src/pde/solvers/AbstractRegularGridDiscreteContinuumSolver.hpp'
p468
sg44
I00
sba(iwrapper_utilities.class_data
CppClass
p469
(dp470
g4
Nsg5
(dp471
g7
g8
sg9
g10
sg11
g12
sg13
g14
sg15
g16
sg17
g18
sg19
g20
sS'*'
g21
sg22
g23
sg24
g23
sg25
g26
sg27
g23
ssg28
S'AbstractUnstructuredGridDiscreteContinuumSolver'
p472
sg30
I00
sg31
I00
sg32
Nsg33
g392
sg35
I01
sg36
I01
sg37
I00
sg38
Nsg39
g106
sg40
Nsg41
Nsg42
I00
sg43
S'/home/grogan/Chaste/projects/MicrovesselChaste/src/pde/solvers/AbstractUnstructuredGridDiscreteContinuumSolver.hpp'
p473
sg44
I00
sba(iwrapper_utilities.class_data
CppClass
p474
(dp475
g4
Nsg5
(dp476
g7
g8
sg9
g10
sg11
g12
sg13
g14
sg15
g16
sg17
g18
sg19
g20
sS'*'
g21
sg22
g23
sg24
g23
sg25
g26
sg27
g23
ssg28
S'AbstractMixedGridDiscreteContinuumSolver'
p477
sg30
I00
sg31
I00
sg32
Nsg33
g392
sg35
I01
sg36
I01
sg37
I00
sg38
Nsg39
g106
sg40
Nsg41
Nsg42
I00
sg43
S'/home/grogan/Chaste/projects/MicrovesselChaste/src/pde/solvers/AbstractMixedGridDiscreteContinuumSolver.hpp'
p478
sg44
I00
sba(iwrapper_utilities.class_data
CppClass
p479
(dp480
g4
Nsg5
(dp481
g7
g8
sg9
g10
sg11
g12
sg13
g14
sg15
g16
sg17
g18
sg19
g20
sS'*'
g21
sg22
g23
sg24
g23
sg25
g26
sg27
g23
ssg28
S'AbstractFiniteDifferenceSolverBase'
p482
sg30
I00
sg31
I00
sg32
Nsg33
g392
sg35
I01
sg36
I01
sg37
I00
sg38
Nsg39
g106
sg40
Nsg41
Nsg42
I00
sg43
S'/home/grogan/Chaste/projects/MicrovesselChaste/src/pde/solvers/finite_difference/AbstractFiniteDifferenceSolverBase.hpp'
p483
sg44
I00
sba(iwrapper_utilities.class_data
CppClass
p484
(dp485
g4
Nsg5
(dp486
g7
g8
sg9
g10
sg11
g12
sg13
g14
sg15
g16
sg17
g18
sg19
g20
sS'*'
g21
sg22
g23
sg24
g23
sg25
g26
sg27
g23
ssg28
S'CoupledLumpedSystemFiniteDifferenceSolver'
p487
sg30
I00
sg31
I00
sg32
Nsg33
g392
sg35
I01
sg36
I01
sg37
I00
sg38
Nsg39
g106
sg40
Nsg41
Nsg42
I00
sg43
S'/home/grogan/Chaste/projects/MicrovesselChaste/src/pde/solvers/finite_difference/CoupledLumpedSystemFiniteDifferenceSolver.hpp'
p488
sg44
I00
sba(iwrapper_utilities.class_data
CppClass
p489
(dp490
g4
Nsg5
(dp491
g7
g8
sg9
g10
sg11
g12
sg13
g14
sg15
g16
sg17
g18
sg19
g20
sS'*'
g21
sg22
g23
sg24
g23
sg25
g26
sg27
g23
ssg28
S'SimpleLinearEllipticFiniteDifferenceSolver'
p492
sg30
I00
sg31
I00
sg32
Nsg33
g392
sg35
I01
sg36
I01
sg37
I00
sg38
Nsg39
g106
sg40
Nsg41
Nsg42
I00
sg43
S'/home/grogan/Chaste/projects/MicrovesselChaste/src/pde/solvers/finite_difference/SimpleLinearEllipticFiniteDifferenceSolver.hpp'
p493
sg44
I00
sba(iwrapper_utilities.class_data
CppClass
p494
(dp495
g4
Nsg5
(dp496
g7
g8
sg9
g10
sg11
g12
sg13
g14
sg15
g16
sg17
g18
sg19
g20
sS'*'
g21
sg22
g23
sg24
g23
sg25
g26
sg27
g23
ssg28
S'SimpleNonLinearEllipticFiniteDifferenceSolver'
p497
sg30
I00
sg31
I00
sg32
Nsg33
g392
sg35
I01
sg36
I01
sg37
I00
sg38
Nsg39
g106
sg40
Nsg41
Nsg42
I00
sg43
S'/home/grogan/Chaste/projects/MicrovesselChaste/src/pde/solvers/finite_difference/SimpleNonLinearEllipticFiniteDifferenceSolver.hpp'
p498
sg44
I00
sba(iwrapper_utilities.class_data
CppClass
p499
(dp500
g4
Nsg5
(dp501
g7
g8
sg9
g10
sg11
g12
sg13
g14
sg15
g16
sg17
g18
sg19
g20
sS'*'
g21
sg22
g23
sg24
g23
sg25
g26
sg27
g23
ssg28
S'AbstractFiniteElementSolverBase'
p502
sg30
I00
sg31
I00
sg32
Nsg33
g392
sg35
I01
sg36
I01
sg37
I00
sg38
Nsg39
g106
sg40
Nsg41
Nsg42
I00
sg43
S'/home/grogan/Chaste/projects/MicrovesselChaste/src/pde/solvers/finite_element/AbstractFiniteElementSolverBase.hpp'
p503
sg44
I00
sba(iwrapper_utilities.class_data
CppClass
p504
(dp505
g4
Nsg5
(dp506
g7
g8
sg9
g10
sg11
g12
sg13
g14
sg15
g16
sg17
g18
sg19
g20
sS'*'
g21
sg22
g23
sg24
g23
sg25
g26
sg27
g23
ssg28
S'CoupledLumpedSystemFiniteElementSolver'
p507
sg30
I00
sg31
I00
sg32
Nsg33
g392
sg35
I01
sg36
I01
sg37
I00
sg38
Nsg39
g106
sg40
Nsg41
Nsg42
I00
sg43
S'/home/grogan/Chaste/projects/MicrovesselChaste/src/pde/solvers/finite_element/CoupledLumpedSystemFiniteElementSolver.hpp'
p508
sg44
I00
sba(iwrapper_utilities.class_data
CppClass
p509
(dp510
g4
Nsg5
(dp511
g7
g8
sg9
g10
sg11
g12
sg13
g14
sg15
g16
sg17
g18
sg19
g20
sS'*'
g21
sg22
g23
sg24
g23
sg25
g26
sg27
g23
ssg28
S'SimpleLinearEllipticFiniteElementSolver'
p512
sg30
I00
sg31
I00
sg32
Nsg33
g392
sg35
I01
sg36
I01
sg37
I00
sg38
Nsg39
g106
sg40
Nsg41
Nsg42
I00
sg43
S'/home/grogan/Chaste/projects/MicrovesselChaste/src/pde/solvers/finite_element/SimpleLinearEllipticFiniteElementSolver.hpp'
p513
sg44
I00
sba(iwrapper_utilities.class_data
CppClass
p514
(dp515
g4
Nsg5
(dp516
g7
g8
sg9
g10
sg11
g12
sg13
g14
sg15
g16
sg17
g18
sg19
g20
sS'*'
g21
sg22
g23
sg24
g23
sg25
g26
sg27
g23
ssg28
S'SimpleNonLinearEllipticFiniteElementSolver'
p517
sg30
I00
sg31
I00
sg32
Nsg33
g392
sg35
I01
sg36
I01
sg37
I00
sg38
Nsg39
g106
sg40
Nsg41
Nsg42
I00
sg43
S'/home/grogan/Chaste/projects/MicrovesselChaste/src/pde/solvers/finite_element/SimpleNonLinearEllipticFiniteElementSolver.hpp'
p518
sg44
I00
sba(iwrapper_utilities.class_data
CppClass
p519
(dp520
g4
Nsg5
(dp521
g7
g8
sg9
g10
sg11
g12
sg13
g14
sg15
g16
sg17
g18
sg19
g20
sS'*'
g21
sg22
g23
sg24
g23
sg25
g26
sg27
g23
ssg28
S'SimpleParabolicFiniteElementSolver'
p522
sg30
I00
sg31
I00
sg32
Nsg33
g392
sg35
I01
sg36
I01
sg37
I00
sg38
Nsg39
g106
sg40
Nsg41
Nsg42
I00
sg43
S'/home/grogan/Chaste/projects/MicrovesselChaste/src/pde/solvers/finite_element/SimpleParabolicFiniteElementSolver.hpp'
p523
sg44
I00
sba(iwrapper_utilities.class_data
CppClass
p524
(dp525
g4
Nsg5
(dp526
g7
g8
sg9
g10
sg11
g12
sg13
g14
sg15
g16
sg17
g18
sg19
g20
sS'*'
g21
sg22
g23
sg24
g23
sg25
g26
sg27
g23
ssg28
S'SimpleParabolicFiniteDifferenceSolver'
p527
sg30
I00
sg31
I00
sg32
Nsg33
g392
sg35
I01
sg36
I01
sg37
I00
sg38
Nsg39
g106
sg40
Nsg41
Nsg42
I00
sg43
S'/home/grogan/Chaste/projects/MicrovesselChaste/src/pde/solvers/finite_difference/SimpleParabolicFiniteDifferenceSolver.hpp'
p528
sg44
I00
sba(iwrapper_utilities.class_data
CppClass
p529
(dp530
g4
Nsg5
(dp531
g7
g8
sg9
g10
sg11
g12
sg13
g14
sg15
g16
sg17
g18
sg19
g20
sS'*'
g21
sg22
g23
sg24
g23
sg25
g26
sg27
g23
ssg28
S'FunctionMap'
p532
sg30
I00
sg31
I00
sg32
Nsg33
g392
sg35
I01
sg36
I01
sg37
I00
sg38
Nsg39
g106
sg40
Nsg41
Nsg42
I00
sg43
S'/home/grogan/Chaste/projects/MicrovesselChaste/src/pde/solvers/FunctionMap.hpp'
p533
sg44
I00
sba(iwrapper_utilities.class_data
CppClass
p534
(dp535
g4
Nsg5
(dp536
g7
g8
sg9
g10
sg11
g12
sg13
g14
sg15
g16
sg17
g18
sg19
g20
sS'*'
g21
sg22
g23
sg24
g23
sg25
g26
sg27
g23
ssg28
S'DensityMap'
p537
sg30
I00
sg31
I00
sg32
Nsg33
g392
sg35
I01
sg36
I01
sg37
I00
sg38
Nsg39
g106
sg40
Nsg41
Nsg42
I00
sg43
S'/home/grogan/Chaste/projects/MicrovesselChaste/src/pde/solvers/DensityMap.hpp'
p538
sg44
I00
sba(iwrapper_utilities.class_data
CppClass
p539
(dp540
g4
Nsg5
(dp541
g7
g8
sg9
g10
sg11
g12
sg13
g14
sg15
g16
sg17
g18
sg19
g20
sS'*'
g21
sg22
g23
sg24
g23
sg25
g26
sg27
g23
ssg28
S'FlowSolver'
p542
sg30
I00
sg31
I00
sg32
Nsg33
S'flow'
p543
sg35
I01
sg36
I01
sg37
I00
sg38
Nsg39
g106
sg40
Nsg41
Nsg42
I00
sg43
S'/home/grogan/Chaste/projects/MicrovesselChaste/src/simulation/flow/FlowSolver.hpp'
p544
sg44
I00
sba(iwrapper_utilities.class_data
CppClass
p545
(dp546
g4
Nsg5
(dp547
g7
g8
sg9
g10
sg11
g12
sg13
g14
sg15
g16
sg17
g18
sg19
g20
sS'*'
g21
sg22
g23
sg24
g23
sg25
g26
sg27
g23
ssg28
S'WallShearStressCalculator'
p548
sg30
I00
sg31
I00
sg32
Nsg33
Nsg35
I01
sg36
I01
sg37
I00
sg38
Nsg39
Nsg40
Nsg41
Nsg42
I00
sg43
Nsg44
I00
sba(iwrapper_utilities.class_data
CppClass
p549
(dp550
g4
Nsg5
(dp551
g7
g8
sg9
g10
sg11
g12
sg13
g14
sg15
g16
sg17
g18
sg19
g20
sS'*'
g21
sg22
g23
sg24
g23
sg25
g26
sg27
g23
ssg28
S'VesselImpedanceCalculator'
p552
sg30
I00
sg31
I00
sg32
Nsg33
g543
sg35
I01
sg36
I01
sg37
I00
sg38
Nsg39
g106
sg40
Nsg41
Nsg42
I00
sg43
S'/home/grogan/Chaste/projects/MicrovesselChaste/src/simulation/flow/calculators/VesselImpedanceCalculator.hpp'
p553
sg44
I00
sba(iwrapper_utilities.class_data
CppClass
p554
(dp555
g4
Nsg5
(dp556
g7
g8
sg9
g10
sg11
g12
sg13
g14
sg15
g16
sg17
g18
sg19
g20
sS'*'
g21
sg22
g23
sg24
g23
sg25
g26
sg27
g23
ssg28
S'BetteridgeHaematocritSolver'
p557
sg30
I00
sg31
I00
sg32
Nsg33
g543
sg35
I01
sg36
I01
sg37
I00
sg38
Nsg39
g106
sg40
Nsg41
Nsg42
I00
sg43
S'/home/grogan/Chaste/projects/MicrovesselChaste/src/simulation/flow/calculators/haematocrit/BetteridgeHaematocritSolver.hpp'
p558
sg44
I00
sba(iwrapper_utilities.class_data
CppClass
p559
(dp560
g4
Nsg5
(dp561
g7
g8
sg9
g10
sg11
g12
sg13
g14
sg15
g16
sg17
g18
sg19
g20
sS'*'
g21
sg22
g23
sg24
g23
sg25
g26
sg27
g23
ssg28
S'AbstractVesselNetworkCalculator'
p562
sg30
I00
sg31
I00
sg32
Nsg33
g543
sg35
I01
sg36
I01
sg37
I00
sg38
Nsg39
g106
sg40
Nsg41
Nsg42
I00
sg43
S'/home/grogan/Chaste/projects/MicrovesselChaste/src/simulation/flow/calculators/AbstractVesselNetworkCalculator.hpp'
p563
sg44
I00
sba(iwrapper_utilities.class_data
CppClass
p564
(dp565
g4
Nsg5
(dp566
g7
g8
sg9
g10
sg11
g12
sg13
g14
sg15
g16
sg17
g18
sg19
g20
sS'*'
g21
sg22
g23
sg24
g23
sg25
g26
sg27
g23
ssg28
S'MechanicalStimulusCalculator'
p567
sg30
I00
sg31
I00
sg32
Nsg33
g543
sg35
I01
sg36
I01
sg37
I00
sg38
Nsg39
g106
sg40
Nsg41
Nsg42
I00
sg43
S'/home/grogan/Chaste/projects/MicrovesselChaste/src/simulation/flow/calculators/MechanicalStimulusCalculator.hpp'
p568
sg44
I00
sba(iwrapper_utilities.class_data
CppClass
p569
(dp570
g4
Nsg5
(dp571
g7
g8
sg9
g10
sg11
g12
sg13
g14
sg15
g16
sg17
g18
sg19
g20
sS'*'
g21
sg22
g23
sg24
g23
sg25
g26
sg27
g23
ssg28
S'MetabolicStimulusCalculator'
p572
sg30
I00
sg31
I00
sg32
Nsg33
g543
sg35
I01
sg36
I01
sg37
I00
sg38
Nsg39
g106
sg40
Nsg41
Nsg42
I00
sg43
S'/home/grogan/Chaste/projects/MicrovesselChaste/src/simulation/flow/calculators/MetabolicStimulusCalculator.hpp'
p573
sg44
I00
sba(iwrapper_utilities.class_data
CppClass
p574
(dp575
g4
Nsg5
(dp576
g7
g8
sg9
g10
sg11
g12
sg13
g14
sg15
g16
sg17
g18
sg19
g20
sS'*'
g21
sg22
g23
sg24
g23
sg25
g26
sg27
g23
ssg28
S'RadiusCalculator'
p577
sg30
I00
sg31
I00
sg32
Nsg33
g543
sg35
I01
sg36
I01
sg37
I00
sg38
Nsg39
g106
sg40
Nsg41
Nsg42
I00
sg43
S'/home/grogan/Chaste/projects/MicrovesselChaste/src/simulation/flow/calculators/RadiusCalculator.hpp'
p578
sg44
I00
sba(iwrapper_utilities.class_data
CppClass
p579
(dp580
g4
Nsg5
(dp581
g7
g8
sg9
g10
sg11
g12
sg13
g14
sg15
g16
sg17
g18
sg19
g20
sS'*'
g21
sg22
g23
sg24
g23
sg25
g26
sg27
g23
ssg28
S'ShrinkingStimulusCalculator'
p582
sg30
I00
sg31
I00
sg32
Nsg33
g543
sg35
I01
sg36
I01
sg37
I00
sg38
Nsg39
g106
sg40
Nsg41
Nsg42
I00
sg43
S'/home/grogan/Chaste/projects/MicrovesselChaste/src/simulation/flow/calculators/ShrinkingStimulusCalculator.hpp'
p583
sg44
I00
sba(iwrapper_utilities.class_data
CppClass
p584
(dp585
g4
Nsg5
(dp586
g7
g8
sg9
g10
sg11
g12
sg13
g14
sg15
g16
sg17
g18
sg19
g20
sS'*'
g21
sg22
g23
sg24
g23
sg25
g26
sg27
g23
ssg28
S'ViscosityCalculator'
p587
sg30
I00
sg31
I00
sg32
Nsg33
g543
sg35
I01
sg36
I01
sg37
I00
sg38
Nsg39
g106
sg40
Nsg41
Nsg42
I00
sg43
S'/home/grogan/Chaste/projects/MicrovesselChaste/src/simulation/flow/calculators/ViscosityCalculator.hpp'
p588
sg44
I00
sba(iwrapper_utilities.class_data
CppClass
p589
(dp590
g4
Nsg5
(dp591
g7
g8
sg9
g10
sg11
g12
sg13
g14
sg15
g16
sg17
g18
sg19
g20
sS'*'
g21
sg22
g23
sg24
g23
sg25
g26
sg27
g23
ssg28
g548
sg30
I00
sg31
I00
sg32
Nsg33
g543
sg35
I01
sg36
I01
sg37
I00
sg38
Nsg39
g106
sg40
Nsg41
Nsg42
I00
sg43
S'/home/grogan/Chaste/projects/MicrovesselChaste/src/simulation/flow/calculators/WallShearStressCalculator.hpp'
p592
sg44
I00
sba(iwrapper_utilities.class_data
CppClass
p593
(dp594
g4
Nsg5
(dp595
g7
g8
sg9
g10
sg11
g12
sg13
g14
sg15
g16
sg17
g18
sg19
g20
sS'*'
g21
sg22
g23
sg24
g23
sg25
g26
sg27
g23
ssg28
S'AbstractStructuralAdaptationSolver'
p596
sg30
I00
sg31
I00
sg32
Nsg33
g543
sg35
I01
sg36
I01
sg37
I00
sg38
Nsg39
g106
sg40
Nsg41
Nsg42
I00
sg43
S'/home/grogan/Chaste/projects/MicrovesselChaste/src/simulation/flow/structural_adaptation/AbstractStructuralAdaptationSolver.hpp'
p597
sg44
I00
sba(iwrapper_utilities.class_data
CppClass
p598
(dp599
g4
Nsg5
(dp600
g7
g8
sg9
g10
sg11
g12
sg13
g14
sg15
g16
sg17
g18
sg19
g20
sS'*'
g21
sg22
g23
sg24
g23
sg25
g26
sg27
g23
ssg28
S'StructuralAdaptationSolver'
p601
sg30
I00
sg31
I00
sg32
Nsg33
g543
sg35
I01
sg36
I01
sg37
I00
sg38
Nsg39
g106
sg40
Nsg41
Nsg42
I00
sg43
S'/home/grogan/Chaste/projects/MicrovesselChaste/src/simulation/flow/structural_adaptation/StructuralAdaptationSolver.hpp'
p602
sg44
I00
sba(iwrapper_utilities.class_data
CppClass
p603
(dp604
g4
Nsg5
(dp605
g7
g8
sg9
g10
sg11
g12
sg13
g14
sg15
g16
sg17
g18
sg19
g20
sS'*'
g21
sg22
g23
sg24
g23
sg25
g26
sg27
g23
ssg28
S'AbstractHaematocritSolver'
p606
sg30
I00
sg31
I00
sg32
Nsg33
g543
sg35
I01
sg36
I01
sg37
I00
sg38
Nsg39
g106
sg40
Nsg41
Nsg42
I00
sg43
S'/home/grogan/Chaste/projects/MicrovesselChaste/src/simulation/flow/calculators/haematocrit/AbstractHaematocritSolver.hpp'
p607
sg44
I00
sba(iwrapper_utilities.class_data
CppClass
p608
(dp609
g4
Nsg5
(dp610
g7
g8
sg9
g10
sg11
g12
sg13
g14
sg15
g16
sg17
g18
sg19
g20
sS'*'
g21
sg22
g23
sg24
g23
sg25
g26
sg27
g23
ssg28
S'AlarconHaematocritSolver'
p611
sg30
I00
sg31
I00
sg32
Nsg33
g543
sg35
I01
sg36
I01
sg37
I00
sg38
Nsg39
g106
sg40
Nsg41
Nsg42
I00
sg43
S'/home/grogan/Chaste/projects/MicrovesselChaste/src/simulation/flow/calculators/haematocrit/AlarconHaematocritSolver.hpp'
p612
sg44
I00
sba(iwrapper_utilities.class_data
CppClass
p613
(dp614
g4
Nsg5
(dp615
g7
g8
sg9
g10
sg11
g12
sg13
g14
sg15
g16
sg17
g18
sg19
g20
sS'*'
g21
sg22
g23
sg24
g23
sg25
g26
sg27
g23
ssg28
S'ConstantHaematocritSolver'
p616
sg30
I00
sg31
I00
sg32
Nsg33
g543
sg35
I01
sg36
I01
sg37
I00
sg38
Nsg39
g106
sg40
Nsg41
Nsg42
I00
sg43
S'/home/grogan/Chaste/projects/MicrovesselChaste/src/simulation/flow/calculators/haematocrit/ConstantHaematocritSolver.hpp'
p617
sg44
I00
sba(iwrapper_utilities.class_data
CppClass
p618
(dp619
g4
Nsg5
(dp620
g7
g8
sg9
g10
sg11
g12
sg13
g14
sg15
g16
sg17
g18
sg19
g20
sS'*'
g21
sg22
g23
sg24
g23
sg25
g26
sg27
g23
ssg28
S'MicrovesselSolver'
p621
sg30
I00
sg31
I00
sg32
Nsg33
S'simulation'
p622
sg35
I01
sg36
I01
sg37
I00
sg38
Nsg39
g106
sg40
Nsg41
Nsg42
I00
sg43
S'/home/grogan/Chaste/projects/MicrovesselChaste/src/simulation/MicrovesselSolver.hpp'
p623
sg44
I00
sba(iwrapper_utilities.class_data
CppClass
p624
(dp625
g4
Nsg5
(dp626
g7
g8
sg9
g10
sg11
g12
sg13
g14
sg15
g16
sg17
g18
sg19
g20
sS'*'
g21
sg22
g23
sg24
g23
sg25
g26
sg27
g23
ssg28
S'MicrovesselSimulationModifier'
p627
sg30
I00
sg31
I00
sg32
Nsg33
g622
sg35
I01
sg36
I01
sg37
I00
sg38
Nsg39
g106
sg40
Nsg41
Nsg42
I00
sg43
S'/home/grogan/Chaste/projects/MicrovesselChaste/src/simulation/modifiers/MicrovesselSimulationModifier.hpp'
p628
sg44
I00
sba(iwrapper_utilities.class_data
CppClass
p629
(dp630
g4
Nsg5
(dp631
g7
g8
sg9
g10
sg11
g12
sg13
g14
sg15
g16
sg17
g18
sg19
g20
sS'*'
g21
sg22
g23
sg24
g23
sg25
g26
sg27
g23
ssg28
S'AbstractMicrovesselModifier'
p632
sg30
I00
sg31
I00
sg32
Nsg33
Nsg35
I01
sg36
I01
sg37
I00
sg38
Nsg39
Nsg40
Nsg41
Nsg42
I00
sg43
Nsg44
I00
sba(iwrapper_utilities.class_data
CppClass
p633
(dp634
g4
Nsg5
(dp635
g7
g8
sg9
g10
sg11
g12
sg13
g14
sg15
g16
sg17
g18
sg19
g20
sS'*'
g21
sg22
g23
sg24
g23
sg25
g26
sg27
g23
ssg28
S'VtkSceneMicrovesselModifier'
p636
sg30
I00
sg31
I00
sg32
Nsg33
Nsg35
I01
sg36
I01
sg37
I00
sg38
Nsg39
Nsg40
Nsg41
Nsg42
I00
sg43
Nsg44
I00
sba(iwrapper_utilities.class_data
CppClass
p637
(dp638
g4
Nsg5
(dp639
g7
g8
sg9
g10
sg11
g12
sg13
g14
sg15
g16
sg17
g18
sg19
g20
sS'*'
g21
sg22
g23
sg24
g23
sg25
g26
sg27
g23
ssg28
S'Owen2011TrackingModifier'
p640
sg30
I00
sg31
I00
sg32
Nsg33
Nsg35
I01
sg36
I01
sg37
I00
sg38
Nsg39
g106
sg40
Nsg41
Nsg42
I00
sg43
S'/home/grogan/Chaste/projects/MicrovesselChaste/src/ode/Owen2011TrackingModifier.hpp'
p641
sg44
I00
sba(iwrapper_utilities.class_data
CppClass
p642
(dp643
g4
Nsg5
(dp644
g7
g8
sg9
g10
sg11
g12
sg13
g14
sg15
g16
sg17
g18
sg19
g20
sS'*'
g21
sg22
g23
sg24
g23
sg25
g26
sg27
g23
ssg28
S'AbstractCellBasedSimulationModifier'
p645
sg30
I00
sg31
I00
sg32
Nsg33
g622
sg35
I01
sg36
I01
sg37
I00
sg38
Nsg39
g159
sg40
Nsg41
Nsg42
I00
sg43
S'/home/grogan/Chaste/cell_based/src/simulation/modifiers/AbstractCellBasedSimulationModifier.hpp'
p646
sg44
I00
sba(iwrapper_utilities.class_data
CppClass
p647
(dp648
g4
Nsg5
(dp649
g7
g8
sg9
g10
sg11
g12
sg13
g14
sg15
g16
sg17
g18
sg19
g20
sS'*'
g21
sg22
g23
sg24
g23
sg25
g26
sg27
g23
ssg28
S'VesselNetworkReader'
p650
sg30
I00
sg31
I00
sg32
Nsg33
S'vessel'
p651
sg35
I01
sg36
I01
sg37
I00
sg38
Nsg39
g106
sg40
Nsg41
Nsg42
I00
sg43
S'/home/grogan/Chaste/projects/MicrovesselChaste/src/population/vessel/readers/VesselNetworkReader.hpp'
p652
sg44
I00
sba(iwrapper_utilities.class_data
CppClass
p653
(dp654
g4
Nsg5
(dp655
g7
g8
sg9
g10
sg11
g12
sg13
g14
sg15
g16
sg17
g18
sg19
g20
sS'*'
g21
sg22
g23
sg24
g23
sg25
g26
sg27
g23
ssg28
S'NodeFlowProperties'
p656
sg30
I00
sg31
I00
sg32
Nsg33
g651
sg35
I01
sg36
I01
sg37
I00
sg38
Nsg39
g106
sg40
Nsg41
Nsg42
I00
sg43
S'/home/grogan/Chaste/projects/MicrovesselChaste/src/population/vessel/properties/NodeFlowProperties.hpp'
p657
sg44
I00
sba(iwrapper_utilities.class_data
CppClass
p658
(dp659
g4
Nsg5
(dp660
g7
g8
sg9
g10
sg11
g12
sg13
g14
sg15
g16
sg17
g18
sg19
g20
sS'*'
g21
sg22
g23
sg24
g23
sg25
g26
sg27
g23
ssg28
S'SegmentFlowProperties'
p661
sg30
I00
sg31
I00
sg32
Nsg33
g651
sg35
I01
sg36
I01
sg37
I00
sg38
Nsg39
g106
sg40
Nsg41
Nsg42
I00
sg43
S'/home/grogan/Chaste/projects/MicrovesselChaste/src/population/vessel/properties/SegmentFlowProperties.hpp'
p662
sg44
I00
sba(iwrapper_utilities.class_data
CppClass
p663
(dp664
g4
Nsg5
(dp665
g7
g8
sg9
g10
sg11
g12
sg13
g14
sg15
g16
sg17
g18
sg19
g20
sS'*'
g21
sg22
g23
sg24
g23
sg25
g26
sg27
g23
ssg28
S'VesselFlowProperties'
p666
sg30
I00
sg31
I00
sg32
Nsg33
g651
sg35
I01
sg36
I01
sg37
I00
sg38
Nsg39
g106
sg40
Nsg41
Nsg42
I00
sg43
S'/home/grogan/Chaste/projects/MicrovesselChaste/src/population/vessel/properties/VesselFlowProperties.hpp'
p667
sg44
I00
sba(iwrapper_utilities.class_data
CppClass
p668
(dp669
g4
Nsg5
(dp670
g7
g8
sg9
g10
sg11
g12
sg13
g14
sg15
g16
sg17
g18
sg19
g20
sS'*'
g21
sg22
g23
sg24
g23
sg25
g26
sg27
g23
ssg28
S'VesselNode'
p671
sg30
I00
sg31
I00
sg32
Nsg33
g651
sg35
I01
sg36
I01
sg37
I00
sg38
Nsg39
g106
sg40
Nsg41
Nsg42
I01
sg43
S'/home/grogan/Chaste/projects/MicrovesselChaste/src/population/vessel/VesselNode.hpp'
p672
sg44
I00
sba(iwrapper_utilities.class_data
CppClass
p673
(dp674
g4
Nsg5
(dp675
g7
g8
sg9
g10
sg11
g12
sg13
g14
sg15
g16
sg17
g18
sg19
g20
sS'*'
g21
sg22
g23
sg24
g23
sg25
g26
sg27
g23
ssg28
S'VesselSegment'
p676
sg30
I00
sg31
I00
sg32
Nsg33
g651
sg35
I01
sg36
I01
sg37
I00
sg38
Nsg39
g106
sg40
Nsg41
Nsg42
I01
sg43
S'/home/grogan/Chaste/projects/MicrovesselChaste/src/population/vessel/VesselSegment.hpp'
p677
sg44
I00
sba(iwrapper_utilities.class_data
CppClass
p678
(dp679
g4
Nsg5
(dp680
g7
g8
sg9
g10
sg11
g12
sg13
g14
sg15
g16
sg17
g18
sg19
g20
sS'*'
g21
sg22
g23
sg24
g23
sg25
g26
sg27
g23
ssg28
S'Vessel'
p681
sg30
I00
sg31
I00
sg32
Nsg33
g651
sg35
I01
sg36
I01
sg37
I00
sg38
Nsg39
g106
sg40
Nsg41
Nsg42
I01
sg43
S'/home/grogan/Chaste/projects/MicrovesselChaste/src/population/vessel/Vessel.hpp'
p682
sg44
I00
sba(iwrapper_utilities.class_data
CppClass
p683
(dp684
g4
Nsg5
(dp685
g7
g8
sg9
g10
sg11
g12
sg13
g14
sg15
g16
sg17
g18
sg19
g20
sS'*'
g21
sg22
g23
sg24
g23
sg25
g26
sg27
g23
ssg28
S'VesselNetwork'
p686
sg30
I00
sg31
I00
sg32
Nsg33
g651
sg35
I01
sg36
I01
sg37
I00
sg38
Nsg39
g106
sg40
Nsg41
Nsg42
I00
sg43
S'/home/grogan/Chaste/projects/MicrovesselChaste/src/population/vessel/VesselNetwork.hpp'
p687
sg44
I00
sba(iwrapper_utilities.class_data
CppClass
p688
(dp689
g4
Nsg5
(dp690
g7
g8
sg9
g10
sg11
g12
sg13
g14
sg15
g16
sg17
g18
sg19
g20
sS'*'
g21
sg22
g23
sg24
g23
sg25
g26
sg27
g23
ssg28
S'VesselNetworkGenerator'
p691
sg30
I00
sg31
I00
sg32
Nsg33
g651
sg35
I01
sg36
I01
sg37
I00
sg38
Nsg39
g106
sg40
Nsg41
Nsg42
I00
sg43
S'/home/grogan/Chaste/projects/MicrovesselChaste/src/population/vessel/generators/VesselNetworkGenerator.hpp'
p692
sg44
I00
sba(iwrapper_utilities.class_data
CppClass
p693
(dp694
g4
Nsg5
(dp695
g7
g8
sg9
g10
sg11
g12
sg13
g14
sg15
g16
sg17
g18
sg19
g20
sS'*'
g21
sg22
g23
sg24
g23
sg25
g26
sg27
g23
ssg28
S'AbstractVesselNetworkComponent'
p696
sg30
I00
sg31
I00
sg32
Nsg33
g651
sg35
I01
sg36
I01
sg37
I00
sg38
Nsg39
g106
sg40
Nsg41
Nsg42
I00
sg43
S'/home/grogan/Chaste/projects/MicrovesselChaste/src/population/vessel/AbstractVesselNetworkComponent.hpp'
p697
sg44
I00
sba(iwrapper_utilities.class_data
CppClass
p698
(dp699
g4
Nsg5
(dp700
g7
g8
sg9
g10
sg11
g12
sg13
g14
sg15
g16
sg17
g18
sg19
g20
sS'*'
g21
sg22
g23
sg24
g23
sg25
g26
sg27
g23
ssg28
S'VesselNetworkCellPopulationInteractor'
p701
sg30
I00
sg31
I00
sg32
Nsg33
Nsg35
I01
sg36
I01
sg37
I00
sg38
Nsg39
g106
sg40
Nsg41
Nsg42
I00
sg43
S'/home/grogan/Chaste/projects/MicrovesselChaste/src/population/VesselNetworkCellPopulationInteractor.hpp'
p702
sg44
I00
sba(iwrapper_utilities.class_data
CppClass
p703
(dp704
g4
Nsg5
(dp705
g7
g8
sg9
g10
sg11
g12
sg13
g14
sg15
g16
sg17
g18
sg19
g20
sS'*'
g21
sg22
g23
sg24
g23
sg25
g26
sg27
g23
ssg28
S'VesselNetworkWriter'
p706
sg30
I00
sg31
I00
sg32
Nsg33
g651
sg35
I01
sg36
I01
sg37
I00
sg38
Nsg39
g106
sg40
Nsg41
Nsg42
I00
sg43
S'/home/grogan/Chaste/projects/MicrovesselChaste/src/population/vessel/writers/VesselNetworkWriter.hpp'
p707
sg44
I00
sba(iwrapper_utilities.class_data
CppClass
p708
(dp709
g4
Nsg5
(dp710
g7
g8
sg9
g10
sg11
g12
sg13
g14
sg15
g16
sg17
g18
sg19
g20
sS'*'
g21
sg22
g23
sg24
g23
sg25
g26
sg27
g23
ssg28
S'DistanceMap'
p711
sg30
I00
sg31
I00
sg32
Nsg33
g651
sg35
I01
sg36
I01
sg37
I00
sg38
Nsg39
g106
sg40
Nsg41
Nsg42
I00
sg43
S'/home/grogan/Chaste/projects/MicrovesselChaste/src/population/vessel/calculators/DistanceMap.hpp'
p712
sg44
I00
sba(iwrapper_utilities.class_data
CppClass
p713
(dp714
g4
Nsg5
(dp715
g7
g8
sg9
g10
sg11
g12
sg13
g14
sg15
g16
sg17
g18
sg19
g20
sS'*'
g21
sg22
g23
sg24
g23
sg25
g26
sg27
g23
ssg28
S'VesselNetworkGeometryCalculator'
p716
sg30
I00
sg31
I00
sg32
Nsg33
g651
sg35
I01
sg36
I01
sg37
I00
sg38
Nsg39
g106
sg40
Nsg41
Nsg42
I00
sg43
S'/home/grogan/Chaste/projects/MicrovesselChaste/src/population/vessel/calculators/VesselNetworkGeometryCalculator.hpp'
p717
sg44
I00
sba(iwrapper_utilities.class_data
CppClass
p718
(dp719
g4
Nsg5
(dp720
g7
g8
sg9
g10
sg11
g12
sg13
g14
sg15
g16
sg17
g18
sg19
g20
sS'*'
g21
sg22
g23
sg24
g23
sg25
g26
sg27
g23
ssg28
S'VesselNetworkGraphCalculator'
p721
sg30
I00
sg31
I00
sg32
Nsg33
g651
sg35
I01
sg36
I01
sg37
I00
sg38
Nsg39
g106
sg40
Nsg41
Nsg42
I00
sg43
S'/home/grogan/Chaste/projects/MicrovesselChaste/src/population/vessel/calculators/VesselNetworkGraphCalculator.hpp'
p722
sg44
I00
sba(iwrapper_utilities.class_data
CppClass
p723
(dp724
g4
Nsg5
(dp725
g7
g8
sg9
g10
sg11
g12
sg13
g14
sg15
g16
sg17
g18
sg19
g20
sS'*'
g21
sg22
g23
sg24
g23
sg25
g26
sg27
g23
ssg28
S'AbstractVesselNetworkComponentProperties'
p726
sg30
I00
sg31
I00
sg32
Nsg33
g651
sg35
I01
sg36
I01
sg37
I00
sg38
Nsg39
g106
sg40
Nsg41
Nsg42
I00
sg43
S'/home/grogan/Chaste/projects/MicrovesselChaste/src/population/vessel/properties/AbstractVesselNetworkComponentProperties.hpp'
p727
sg44
I00
sba(iwrapper_utilities.class_data
CppClass
p728
(dp729
g4
Nsg5
(dp730
g7
g8
sg9
g10
sg11
g12
sg13
g14
sg15
g16
sg17
g18
sg19
g20
sS'*'
g21
sg22
g23
sg24
g23
sg25
g26
sg27
g23
ssg28
S'AbstractVesselNetworkComponentFlowProperties'
p731
sg30
I00
sg31
I00
sg32
Nsg33
g651
sg35
I01
sg36
I01
sg37
I00
sg38
Nsg39
g106
sg40
Nsg41
Nsg42
I00
sg43
S'/home/grogan/Chaste/projects/MicrovesselChaste/src/population/vessel/properties/AbstractVesselNetworkComponentFlowProperties.hpp'
p732
sg44
I00
sba(iwrapper_utilities.class_data
CppClass
p733
(dp734
g4
Nsg5
(dp735
g7
g8
sg9
g10
sg11
g12
sg13
g14
sg15
g16
sg17
g18
sg19
g20
sS'*'
g21
sg22
g23
sg24
g23
sg25
g26
sg27
g23
ssg28
S'AbstractVesselNetworkComponentChemicalProperties'
p736
sg30
I00
sg31
I00
sg32
Nsg33
g651
sg35
I01
sg36
I01
sg37
I00
sg38
Nsg39
g106
sg40
Nsg41
Nsg42
I00
sg43
S'/home/grogan/Chaste/projects/MicrovesselChaste/src/population/vessel/properties/AbstractVesselNetworkComponentChemicalProperties.hpp'
p737
sg44
I00
sba(iwrapper_utilities.class_data
CppClass
p738
(dp739
g4
Nsg5
(dp740
g7
g8
sg9
g10
sg11
g12
sg13
g14
sg15
g16
sg17
g18
sg19
g20
sS'*'
g21
sg22
g23
sg24
g23
sg25
g26
sg27
g23
ssg28
S'MicrovesselVtkScene'
p741
sg30
I00
sg31
I00
sg32
Nsg33
S'visualization'
p742
sg35
I01
sg36
I01
sg37
I00
sg38
Nsg39
g106
sg40
Nsg41
Nsg42
I00
sg43
S'/home/grogan/Chaste/projects/MicrovesselChaste/src/utility/visualization/MicrovesselVtkScene.hpp'
p743
sg44
I00
sba(iwrapper_utilities.class_data
CppClass
p744
(dp745
g4
Nsg5
(dp746
g7
g8
sg9
g10
sg11
g12
sg13
g14
sg15
g16
sg17
g18
sg19
g20
sS'*'
g21
sg22
g23
sg24
g23
sg25
g26
sg27
g23
ssg28
S'CellPopulationActorGenerator'
p747
sg30
I00
sg31
I00
sg32
Nsg33
g742
sg35
I01
sg36
I01
sg37
I00
sg38
Nsg39
g106
sg40
Nsg41
Nsg42
I00
sg43
S'/home/grogan/Chaste/projects/MicrovesselChaste/src/utility/visualization/CellPopulationActorGenerator.hpp'
p748
sg44
I00
sba(iwrapper_utilities.class_data
CppClass
p749
(dp750
g4
Nsg5
(dp751
g7
g8
sg9
g10
sg11
g12
sg13
g14
sg15
g16
sg17
g18
sg19
g20
sS'*'
g21
sg22
g23
sg24
g23
sg25
g26
sg27
g23
ssg28
S'DiscreteContinuumMeshActorGenerator'
p752
sg30
I00
sg31
I00
sg32
Nsg33
g742
sg35
I01
sg36
I01
sg37
I00
sg38
Nsg39
g106
sg40
Nsg41
Nsg42
I00
sg43
S'/home/grogan/Chaste/projects/MicrovesselChaste/src/utility/visualization/DiscreteContinuumMeshActorGenerator.hpp'
p753
sg44
I00
sba(iwrapper_utilities.class_data
CppClass
p754
(dp755
g4
Nsg5
(dp756
g7
g8
sg9
g10
sg11
g12
sg13
g14
sg15
g16
sg17
g18
sg19
g20
sS'*'
g21
sg22
g23
sg24
g23
sg25
g26
sg27
g23
ssg28
S'PartActorGenerator'
p757
sg30
I00
sg31
I00
sg32
Nsg33
g742
sg35
I01
sg36
I01
sg37
I00
sg38
Nsg39
g106
sg40
Nsg41
Nsg42
I00
sg43
S'/home/grogan/Chaste/projects/MicrovesselChaste/src/utility/visualization/PartActorGenerator.hpp'
p758
sg44
I00
sba(iwrapper_utilities.class_data
CppClass
p759
(dp760
g4
Nsg5
(dp761
g7
g8
sg9
g10
sg11
g12
sg13
g14
sg15
g16
sg17
g18
sg19
g20
sS'*'
g21
sg22
g23
sg24
g23
sg25
g26
sg27
g23
ssg28
S'RegularGridActorGenerator'
p762
sg30
I00
sg31
I00
sg32
Nsg33
g742
sg35
I01
sg36
I01
sg37
I00
sg38
Nsg39
g106
sg40
Nsg41
Nsg42
I00
sg43
S'/home/grogan/Chaste/projects/MicrovesselChaste/src/utility/visualization/RegularGridActorGenerator.hpp'
p763
sg44
I00
sba(iwrapper_utilities.class_data
CppClass
p764
(dp765
g4
Nsg5
(dp766
g7
g8
sg9
g10
sg11
g12
sg13
g14
sg15
g16
sg17
g18
sg19
g20
sS'*'
g21
sg22
g23
sg24
g23
sg25
g26
sg27
g23
ssg28
S'VesselNetworkActorGenerator'
p767
sg30
I00
sg31
I00
sg32
Nsg33
g742
sg35
I01
sg36
I01
sg37
I00
sg38
Nsg39
g106
sg40
Nsg41
Nsg42
I00
sg43
S'/home/grogan/Chaste/projects/MicrovesselChaste/src/utility/visualization/VesselNetworkActorGenerator.hpp'
p768
sg44
I00
sba(iwrapper_utilities.class_data
CppClass
p769
(dp770
g4
Nsg5
(dp771
g7
g8
sg9
g10
sg11
g12
sg13
g14
sg15
g16
sg17
g18
sg19
g20
sS'*'
g21
sg22
g23
sg24
g23
sg25
g26
sg27
g23
ssg28
S'AbstractActorGenerator'
p772
sg30
I00
sg31
I00
sg32
Nsg33
g742
sg35
I01
sg36
I01
sg37
I00
sg38
Nsg39
g106
sg40
Nsg41
Nsg42
I00
sg43
S'/home/grogan/Chaste/projects/MicrovesselChaste/src/utility/visualization/AbstractActorGenerator.hpp'
p773
sg44
I00
sba(iwrapper_utilities.class_data
CppClass
p774
(dp775
g4
Nsg5
(dp776
g7
g8
sg9
g10
sg11
g12
sg13
g14
sg15
g16
sg17
g18
sg19
g20
sS'*'
g21
sg22
g23
sg24
g23
sg25
g26
sg27
g23
ssg28
g632
sg30
I00
sg31
I00
sg32
Nsg33
g622
sg35
I01
sg36
I01
sg37
I00
sg38
Nsg39
g106
sg40
Nsg41
Nsg42
I00
sg43
S'/home/grogan/Chaste/projects/MicrovesselChaste/src/simulation/modifiers/AbstractMicrovesselModifier.hpp'
p777
sg44
I00
sba(iwrapper_utilities.class_data
CppClass
p778
(dp779
g4
Nsg5
(dp780
g7
g8
sg9
g10
sg11
g12
sg13
g14
sg15
g16
sg17
g18
sg19
g20
sS'*'
g21
sg22
g23
sg24
g23
sg25
g26
sg27
g23
ssg28
g636
sg30
I00
sg31
I00
sg32
Nsg33
g622
sg35
I01
sg36
I01
sg37
I00
sg38
Nsg39
g106
sg40
Nsg41
Nsg42
I00
sg43
S'/home/grogan/Chaste/projects/MicrovesselChaste/src/simulation/modifiers/VtkSceneMicrovesselModifier.hpp'
p781
sg44
I00
sba(iwrapper_utilities.class_data
CppClass
p782
(dp783
g4
Nsg5
(dp784
g7
g8
sg9
g10
sg11
g12
sg13
g14
sg15
g16
sg17
g18
sg19
g20
sS'*'
g21
sg22
g23
sg24
g23
sg25
g26
sg27
g23
ssg28
S'ParameterInstance'
p785
sg30
I00
sg31
I00
sg32
Nsg33
S'utility'
p786
sg35
I01
sg36
I00
sg37
I01
sg38
Nsg39
Nsg40
Nsg41
Nsg42
I00
sg43
S'/home/grogan/Chaste/projects/MicrovesselChaste/src/utility/ParameterInstance.hpp'
p787
sg44
I00
sba(iwrapper_utilities.class_data
CppClass
p788
(dp789
g4
Nsg5
(dp790
g7
g8
sg9
g10
sg11
g12
sg13
g14
sg15
g16
sg17
g18
sg19
g20
sS'*'
g21
sg22
g23
sg24
g23
sg25
g26
sg27
g23
ssg28
S'BaseUnits'
p791
sg30
I00
sg31
I00
sg32
Nsg33
g786
sg35
I01
sg36
I01
sg37
I00
sg38
Nsg39
Nsg40
Nsg41
Nsg42
I00
sg43
S'/home/grogan/Chaste/projects/MicrovesselChaste/src/utility/BaseUnits.hpp'
p792
sg44
I00
sba(iwrapper_utilities.class_data
CppClass
p793
(dp794
g4
Nsg5
(dp795
g7
g8
sg9
g10
sg11
g12
sg13
g14
sg15
g16
sg17
g18
sg19
g20
sS'*'
g21
sg22
g23
sg24
g23
sg25
g26
sg27
g23
ssg28
S'UnitCollection'
p796
sg30
I00
sg31
I00
sg32
Nsg33
g786
sg35
I01
sg36
I00
sg37
I01
sg38
Nsg39
Nsg40
Nsg41
Nsg42
I00
sg43
S'/home/grogan/Chaste/projects/MicrovesselChaste/src/utility/UnitCollection.hpp'
p797
sg44
I00
sba(iwrapper_utilities.class_data
CppClass
p798
(dp799
g4
Nsg5
(dp800
g7
g8
sg9
g10
sg11
g12
sg13
g14
sg15
g16
sg17
g18
sg19
g20
sS'*'
g21
sg22
g23
sg24
g23
sg25
g26
sg27
g23
ssg28
S'ParameterCollection'
p801
sg30
I00
sg31
I00
sg32
Nsg33
g786
sg35
I01
sg36
I01
sg37
I00
sg38
Nsg39
Nsg40
Nsg41
Nsg42
I00
sg43
S'/home/grogan/Chaste/projects/MicrovesselChaste/src/utility/ParameterCollection.hpp'
p802
sg44
I00
sba(iwrapper_utilities.class_data
CppClass
p803
(dp804
g4
Nsg5
(dp805
g7
g8
sg9
g10
sg11
g12
sg13
g14
sg15
g16
sg17
g18
sg19
g20
sS'*'
g21
sg22
g23
sg24
g23
sg25
g26
sg27
g23
ssg28
S'BaseParameterInstance'
p806
sg30
I00
sg31
I00
sg32
Nsg33
g786
sg35
I01
sg36
I01
sg37
I00
sg38
Nsg39
Nsg40
Nsg41
Nsg42
I00
sg43
S'/home/grogan/Chaste/projects/MicrovesselChaste/src/utility/BaseParameterInstance.hpp'
p807
sg44
I00
sba(iwrapper_utilities.class_data
CppClass
p808
(dp809
g4
Nsg5
(dp810
g7
g8
sg9
g10
sg11
g12
sg13
g14
sg15
g16
sg17
g18
sg19
g20
sS'*'
g21
sg22
g23
sg24
g23
sg25
g26
sg27
g23
ssg28
S'Owen11Parameters'
p811
sg30
I00
sg31
I00
sg32
Nsg33
g786
sg35
I01
sg36
I01
sg37
I00
sg38
Nsg39
Nsg40
Nsg41
Nsg42
I00
sg43
S'/home/grogan/Chaste/projects/MicrovesselChaste/src/utility/literature_parameters/Owen11Parameters.hpp'
p812
sg44
I00
sba(iwrapper_utilities.class_data
CppClass
p813
(dp814
g4
Nsg5
(dp815
g7
g8
sg9
g10
sg11
g12
sg13
g14
sg15
g16
sg17
g18
sg19
g20
sS'*'
g21
sg22
g23
sg24
g23
sg25
g26
sg27
g23
ssg28
S'Connor17Parameters'
p816
sg30
I00
sg31
I00
sg32
Nsg33
g786
sg35
I01
sg36
I01
sg37
I00
sg38
Nsg39
Nsg40
Nsg41
Nsg42
I00
sg43
S'/home/grogan/Chaste/projects/MicrovesselChaste/src/utility/literature_parameters/Connor17Parameters.hpp'
p817
sg44
I00
sba(iwrapper_utilities.class_data
CppClass
p818
(dp819
g4
Nsg5
(dp820
g7
g8
sg9
g10
sg11
g12
sg13
g14
sg15
g16
sg17
g18
sg19
g20
sS'*'
g21
sg22
g23
sg24
g23
sg25
g26
sg27
g23
ssg28
S'Secomb04Parameters'
p821
sg30
I00
sg31
I00
sg32
Nsg33
g786
sg35
I01
sg36
I01
sg37
I00
sg38
Nsg39
Nsg40
Nsg41
Nsg42
I00
sg43
S'/home/grogan/Chaste/projects/MicrovesselChaste/src/utility/literature_parameters/Secomb04Parameters.hpp'
p822
sg44
I00
sba(iwrapper_utilities.class_data
CppClass
p823
(dp824
g4
Nsg5
(dp825
g7
g8
sg9
g10
sg11
g12
sg13
g14
sg15
g16
sg17
g18
sg19
g20
sS'*'
g21
sg22
g23
sg24
g23
sg25
g26
sg27
g23
ssg28
S'GenericParameters'
p826
sg30
I00
sg31
I00
sg32
Nsg33
g786
sg35
I01
sg36
I01
sg37
I00
sg38
Nsg39
Nsg40
Nsg41
Nsg42
I00
sg43
S'/home/grogan/Chaste/projects/MicrovesselChaste/src/utility/literature_parameters/GenericParameters.hpp'
p827
sg44
I00
sba.