(lp1
(iwrapper_utilities.class_data
CppClass
p2
(dp3
S'pointer_return_methods'
p4
NsS'name'
p5
S'Polygon'
p6
sS'declaration_code'
p7
NsS'component'
p8
S'geometry'
p9
sS'needs_include_file'
p10
I01
sS'needs_instantiation'
p11
I01
sS'skip_wrapping'
p12
I00
sS'excluded_variables'
p13
NsS'template_args'
p14
(lp15
(lp16
I2
aa(lp17
I3
aasS'excluded_methods'
p18
(lp19
S'GetBoundingBox'
p20
asS'name_override'
p21
NsS'full_path'
p22
S'/home/grogan/Chaste/projects/MicrovesselChaste/src/geometry/Polygon.hpp'
p23
sS'include_file_only'
p24
I00
sba(iwrapper_utilities.class_data
CppClass
p25
(dp26
g4
Nsg5
S'Facet'
p27
sg7
Nsg8
g9
sg10
I01
sg11
I01
sg12
I00
sg13
Nsg14
g15
sg18
(lp28
g20
asg21
Nsg22
S'/home/grogan/Chaste/projects/MicrovesselChaste/src/geometry/Facet.hpp'
p29
sg24
I00
sba(iwrapper_utilities.class_data
CppClass
p30
(dp31
g4
Nsg5
S'Part'
p32
sg7
Nsg8
g9
sg10
I01
sg11
I01
sg12
I00
sg13
Nsg14
g15
sg18
(lp33
g20
asg21
Nsg22
S'/home/grogan/Chaste/projects/MicrovesselChaste/src/geometry/Part.hpp'
p34
sg24
I00
sba(iwrapper_utilities.class_data
CppClass
p35
(dp36
g4
Nsg5
S'MappableGridGenerator'
p37
sg7
Nsg8
g9
sg10
I01
sg11
I01
sg12
I00
sg13
Nsg14
Nsg18
Nsg21
Nsg22
S'/home/grogan/Chaste/projects/MicrovesselChaste/src/geometry/generators/MappableGridGenerator.hpp'
p38
sg24
I00
sba(iwrapper_utilities.class_data
CppClass
p39
(dp40
g4
Nsg5
S'NetworkToSurface'
p41
sg7
Nsg8
g9
sg10
I01
sg11
I01
sg12
I00
sg13
Nsg14
g15
sg18
Nsg21
Nsg22
S'/home/grogan/Chaste/projects/MicrovesselChaste/src/geometry/generators/NetworkToSurface.hpp'
p42
sg24
I00
sba(iwrapper_utilities.class_data
CppClass
p43
(dp44
g4
Nsg5
S'VesselSurfaceGenerator'
p45
sg7
Nsg8
g9
sg10
I01
sg11
I01
sg12
I00
sg13
Nsg14
g15
sg18
Nsg21
Nsg22
S'/home/grogan/Chaste/projects/MicrovesselChaste/src/geometry/generators/VesselSurfaceGenerator.hpp'
p46
sg24
I00
sba(iwrapper_utilities.class_data
CppClass
p47
(dp48
g4
Nsg5
S'BoundaryExtractor'
p49
sg7
Nsg8
g9
sg10
I01
sg11
I01
sg12
I00
sg13
Nsg14
Nsg18
Nsg21
Nsg22
S'/home/grogan/Chaste/projects/MicrovesselChaste/src/geometry/tools/BoundaryExtractor.hpp'
p50
sg24
I00
sba(iwrapper_utilities.class_data
CppClass
p51
(dp52
g4
Nsg5
S'SurfaceCleaner'
p53
sg7
Nsg8
g9
sg10
I01
sg11
I01
sg12
I00
sg13
Nsg14
Nsg18
Nsg21
Nsg22
S'/home/grogan/Chaste/projects/MicrovesselChaste/src/geometry/tools/SurfaceCleaner.hpp'
p54
sg24
I00
sba(iwrapper_utilities.class_data
CppClass
p55
(dp56
g4
Nsg5
S'GeometryFormat'
p57
sg7
Nsg8
Nsg10
I00
sg11
I01
sg12
I00
sg13
Nsg14
Nsg18
Nsg21
Nsg22
Nsg24
I00
sba(iwrapper_utilities.class_data
CppClass
p58
(dp59
g4
Nsg5
S'GeometryWriter'
p60
sg7
Nsg8
g9
sg10
I01
sg11
I01
sg12
I00
sg13
Nsg14
Nsg18
Nsg21
Nsg22
S'/home/grogan/Chaste/projects/MicrovesselChaste/src/geometry/writers/GeometryWriter.hpp'
p61
sg24
I00
sba(iwrapper_utilities.class_data
CppClass
p62
(dp63
g4
Nsg5
S'boost::shared_ptr'
p64
sg7
Nsg8
Nsg10
I00
sg11
I00
sg12
I01
sg13
Nsg14
(lp65
(lp66
S'Polygon2'
p67
aa(lp68
S'Polygon3'
p69
aasg18
Nsg21
Nsg22
Nsg24
I00
sba(iwrapper_utilities.class_data
CppClass
p70
(dp71
g4
Nsg5
S'std::vector'
p72
sg7
Nsg8
Nsg10
I00
sg11
I00
sg12
I01
sg13
Nsg14
(lp73
(lp74
S'std::vector<boost::shared_ptr<Polygon2 > >'
p75
aa(lp76
S'std::vector<boost::shared_ptr<Polygon3 > >'
p77
aa(lp78
S'boost::shared_ptr<Polygon<2> >'
p79
aa(lp80
g79
aa(lp81
S'boost::shared_ptr<Facet<2> >'
p82
aa(lp83
S'boost::shared_ptr<Facet<3> >'
p84
aa(lp85
S'boost::shared_ptr<DimensionalChastePoint<2> >'
p86
aa(lp87
S'boost::shared_ptr<DimensionalChastePoint<3> >'
p88
aasg18
Nsg21
Nsg22
Nsg24
I00
sba(iwrapper_utilities.class_data
CppClass
p89
(dp90
g4
Nsg5
S'AbstractDiscreteContinuumGrid'
p91
sg7
Nsg8
S'mesh'
p92
sg10
I01
sg11
I01
sg12
I00
sg13
Nsg14
(lp93
(lp94
I2
aI2
aa(lp95
I3
aI3
aasg18
Nsg21
Nsg22
S'/home/grogan/Chaste/projects/MicrovesselChaste/src/mesh/AbstractDiscreteContinuumGrid.hpp'
p96
sg24
I00
sba(iwrapper_utilities.class_data
CppClass
p97
(dp98
g4
Nsg5
S'DimensionalChastePoint'
p99
sg7
Nsg8
g92
sg10
I01
sg11
I01
sg12
I00
sg13
Nsg14
g15
sg18
Nsg21
Nsg22
S'/home/grogan/Chaste/projects/MicrovesselChaste/src/mesh/DimensionalChastePoint.hpp'
p100
sg24
I00
sba(iwrapper_utilities.class_data
CppClass
p101
(dp102
g4
Nsg5
S'DiscreteContinuumMesh'
p103
sg7
Nsg8
g92
sg10
I01
sg11
I01
sg12
I00
sg13
Nsg14
g93
sg18
Nsg21
Nsg22
S'/home/grogan/Chaste/projects/MicrovesselChaste/src/mesh/DiscreteContinuumMesh.hpp'
p104
sg24
I00
sba(iwrapper_utilities.class_data
CppClass
p105
(dp106
g4
Nsg5
S'DiscreteContinuumMeshGenerator'
p107
sg7
Nsg8
g92
sg10
I01
sg11
I01
sg12
I00
sg13
Nsg14
g93
sg18
Nsg21
Nsg22
S'/home/grogan/Chaste/projects/MicrovesselChaste/src/mesh/DiscreteContinuumMeshGenerator.hpp'
p108
sg24
I00
sba(iwrapper_utilities.class_data
CppClass
p109
(dp110
g4
Nsg5
S'GridCalculator'
p111
sg7
Nsg8
g92
sg10
I01
sg11
I01
sg12
I00
sg13
Nsg14
g15
sg18
Nsg21
Nsg22
S'/home/grogan/Chaste/projects/MicrovesselChaste/src/mesh/GridCalculator.hpp'
p112
sg24
I00
sba(iwrapper_utilities.class_data
CppClass
p113
(dp114
g4
Nsg5
S'MeshReader'
p115
sg7
Nsg8
g92
sg10
I01
sg11
I01
sg12
I00
sg13
Nsg14
Nsg18
Nsg21
Nsg22
S'/home/grogan/Chaste/projects/MicrovesselChaste/src/mesh/MeshReader.hpp'
p116
sg24
I00
sba(iwrapper_utilities.class_data
CppClass
p117
(dp118
g4
Nsg5
S'MultiFormatMeshWriter'
p119
sg7
Nsg8
g92
sg10
I01
sg11
I01
sg12
I00
sg13
Nsg14
g15
sg18
Nsg21
Nsg22
S'/home/grogan/Chaste/projects/MicrovesselChaste/src/mesh/MultiFormatMeshWriter.hpp'
p120
sg24
I00
sba(iwrapper_utilities.class_data
CppClass
p121
(dp122
g4
Nsg5
S'RegularGrid'
p123
sg7
Nsg8
g92
sg10
I01
sg11
I01
sg12
I00
sg13
Nsg14
g15
sg18
Nsg21
Nsg22
S'/home/grogan/Chaste/projects/MicrovesselChaste/src/mesh/RegularGrid.hpp'
p124
sg24
I00
sba(iwrapper_utilities.class_data
CppClass
p125
(dp126
g4
Nsg5
S'RegularGridWriter'
p127
sg7
Nsg8
g92
sg10
I01
sg11
I01
sg12
I00
sg13
Nsg14
Nsg18
Nsg21
Nsg22
S'/home/grogan/Chaste/projects/MicrovesselChaste/src/mesh/RegularGridWriter.hpp'
p128
sg24
I00
sba(iwrapper_utilities.class_data
CppClass
p129
(dp130
g4
Nsg5
S'MeshFormat'
p131
sg7
Nsg8
Nsg10
I00
sg11
I01
sg12
I00
sg13
Nsg14
Nsg18
Nsg21
Nsg22
Nsg24
I00
sba(iwrapper_utilities.class_data
CppClass
p132
(dp133
g4
Nsg5
g72
sg7
Nsg8
Nsg10
I00
sg11
I00
sg12
I01
sg13
Nsg14
(lp134
(lp135
S'DimensionalChastePoint<2>'
p136
aa(lp137
S'DimensionalChastePoint<3>'
p138
aasg18
Nsg21
Nsg22
Nsg24
I00
sba(iwrapper_utilities.class_data
CppClass
p139
(dp140
g4
Nsg5
S'std::pair'
p141
sg7
Nsg8
Nsg10
I00
sg11
I00
sg12
I01
sg13
Nsg14
(lp142
(lp143
S'DimensionalChastePoint<2>, DimensionalChastePoint<2>'
p144
aa(lp145
S'DimensionalChastePoint<3>, DimensionalChastePoint<3>'
p146
aasg18
Nsg21
Nsg22
Nsg24
I00
sba(iwrapper_utilities.class_data
CppClass
p147
(dp148
g4
Nsg5
S'AbstractCellKiller'
p149
sg7
Nsg8
Nsg10
I01
sg11
I01
sg12
I00
sg13
Nsg14
g15
sg18
Nsg21
Nsg22
S'/home/grogan/Chaste/cell_based/src/population/killers/AbstractCellKiller.hpp'
p150
sg24
I00
sba(iwrapper_utilities.class_data
CppClass
p151
(dp152
g4
Nsg5
S'AbstractCellMutationState'
p153
sg7
Nsg8
S'cell'
p154
sg10
I01
sg11
I01
sg12
I00
sg13
Nsg14
Nsg18
Nsg21
Nsg22
S'/home/grogan/Chaste/cell_based/src/cell/properties/mutations/AbstractCellMutationState.hpp'
p155
sg24
I00
sba(iwrapper_utilities.class_data
CppClass
p156
(dp157
g4
Nsg5
S'CancerCellMutationState'
p158
sg7
Nsg8
g154
sg10
I01
sg11
I01
sg12
I00
sg13
Nsg14
Nsg18
Nsg21
Nsg22
S'/home/grogan/Chaste/projects/MicrovesselChaste/src/population/cell/properties/mutations/CancerCellMutationState.hpp'
p159
sg24
I00
sba(iwrapper_utilities.class_data
CppClass
p160
(dp161
g4
Nsg5
S'QuiescentCancerCellMutationState'
p162
sg7
Nsg8
g154
sg10
I01
sg11
I01
sg12
I00
sg13
Nsg14
Nsg18
Nsg21
Nsg22
S'/home/grogan/Chaste/projects/MicrovesselChaste/src/population/cell/properties/mutations/QuiescentCancerCellMutationState.hpp'
p163
sg24
I00
sba(iwrapper_utilities.class_data
CppClass
p164
(dp165
g4
Nsg5
S'StalkCellMutationState'
p166
sg7
Nsg8
g154
sg10
I01
sg11
I01
sg12
I00
sg13
Nsg14
Nsg18
Nsg21
Nsg22
S'/home/grogan/Chaste/projects/MicrovesselChaste/src/population/cell/properties/mutations/StalkCellMutationState.hpp'
p167
sg24
I00
sba(iwrapper_utilities.class_data
CppClass
p168
(dp169
g4
Nsg5
S'TipCellMutationState'
p170
sg7
Nsg8
g154
sg10
I01
sg11
I01
sg12
I00
sg13
Nsg14
Nsg18
Nsg21
Nsg22
S'/home/grogan/Chaste/projects/MicrovesselChaste/src/population/cell/properties/mutations/TipCellMutationState.hpp'
p171
sg24
I00
sba(iwrapper_utilities.class_data
CppClass
p172
(dp173
g4
Nsg5
S'VesselCellMutationState'
p174
sg7
Nsg8
g154
sg10
I01
sg11
I01
sg12
I00
sg13
Nsg14
Nsg18
Nsg21
Nsg22
S'/home/grogan/Chaste/projects/MicrovesselChaste/src/population/cell/properties/mutations/VesselCellMutationState.hpp'
p175
sg24
I00
sba(iwrapper_utilities.class_data
CppClass
p176
(dp177
g4
Nsg5
S'MacrophageMutationState'
p178
sg7
Nsg8
g154
sg10
I01
sg11
I01
sg12
I00
sg13
Nsg14
Nsg18
Nsg21
Nsg22
S'/home/grogan/Chaste/projects/MicrovesselChaste/src/population/cell/properties/mutations/MacrophageMutationState.hpp'
p179
sg24
I00
sba(iwrapper_utilities.class_data
CppClass
p180
(dp181
g4
Nsg5
S'Owen2011OxygenBasedCellCycleModel'
p182
sg7
Nsg8
g154
sg10
I01
sg11
I01
sg12
I00
sg13
Nsg14
Nsg18
Nsg21
Nsg22
S'/home/grogan/Chaste/projects/MicrovesselChaste/src/population/cell/cycle/Owen2011OxygenBasedCellCycleModel.hpp'
p183
sg24
I00
sba(iwrapper_utilities.class_data
CppClass
p184
(dp185
g4
Nsg5
S'Owen11CellPopulationGenerator'
p186
sg7
Nsg8
g154
sg10
I01
sg11
I01
sg12
I00
sg13
Nsg14
g15
sg18
Nsg21
Nsg22
S'/home/grogan/Chaste/projects/MicrovesselChaste/src/population/cell/Owen11CellPopulationGenerator.hpp'
p187
sg24
I00
sba(iwrapper_utilities.class_data
CppClass
p188
(dp189
g4
Nsg5
S'CaBasedCellPopulation'
p190
sg7
Nsg8
Nsg10
I01
sg11
I01
sg12
I00
sg13
Nsg14
g15
sg18
Nsg21
Nsg22
S'/home/grogan/Chaste/cell_based/src/population/CaBasedCellPopulation.hpp'
p191
sg24
I00
sba(iwrapper_utilities.class_data
CppClass
p192
(dp193
g4
Nsg5
S'LQRadiotherapyCellKiller'
p194
sg7
Nsg8
g154
sg10
I01
sg11
I01
sg12
I00
sg13
Nsg14
g15
sg18
Nsg21
Nsg22
S'/home/grogan/Chaste/projects/MicrovesselChaste/src/population/cell/killers/LQRadiotherapyCellKiller.hpp'
p195
sg24
I00
sba(iwrapper_utilities.class_data
CppClass
p196
(dp197
g4
Nsg5
S'Owen11CaBasedDivisionRule'
p198
sg7
Nsg8
g154
sg10
I01
sg11
I01
sg12
I00
sg13
Nsg14
g15
sg18
Nsg21
Nsg22
S'/home/grogan/Chaste/projects/MicrovesselChaste/src/population/cell/Owen11CaBasedDivisionRule.hpp'
p199
sg24
I00
sba(iwrapper_utilities.class_data
CppClass
p200
(dp201
g4
Nsg5
S'Owen11CaUpdateRule'
p202
sg7
Nsg8
g154
sg10
I01
sg11
I01
sg12
I00
sg13
Nsg14
g15
sg18
Nsg21
Nsg22
S'/home/grogan/Chaste/projects/MicrovesselChaste/src/population/cell/Owen11CaUpdateRule.hpp'
p203
sg24
I00
sba(iwrapper_utilities.class_data
CppClass
p204
(dp205
g4
Nsg5
S'TipAttractionLatticeBasedMigrationRule'
p206
sg7
Nsg8
S'simulation'
p207
sg10
I01
sg11
I01
sg12
I00
sg13
Nsg14
g15
sg18
Nsg21
Nsg22
S'/home/grogan/Chaste/projects/MicrovesselChaste/src/simulation/angiogenesis/migration_rules/lattice/TipAttractionLatticeBasedMigrationRule.hpp'
p208
sg24
I00
sba(iwrapper_utilities.class_data
CppClass
p209
(dp210
g4
Nsg5
S'AngiogenesisSolver'
p211
sg7
Nsg8
g207
sg10
I01
sg11
I01
sg12
I00
sg13
Nsg14
g15
sg18
Nsg21
Nsg22
S'/home/grogan/Chaste/projects/MicrovesselChaste/src/simulation/angiogenesis/AngiogenesisSolver.hpp'
p212
sg24
I00
sba(iwrapper_utilities.class_data
CppClass
p213
(dp214
g4
Nsg5
S'Owen2011MigrationRule'
p215
sg7
Nsg8
g207
sg10
I01
sg11
I01
sg12
I00
sg13
Nsg14
g15
sg18
Nsg21
Nsg22
S'/home/grogan/Chaste/projects/MicrovesselChaste/src/simulation/angiogenesis/migration_rules/lattice/Owen2011MigrationRule.hpp'
p216
sg24
I00
sba(iwrapper_utilities.class_data
CppClass
p217
(dp218
g4
Nsg5
S'Owen2011SproutingRule'
p219
sg7
Nsg8
g207
sg10
I01
sg11
I01
sg12
I00
sg13
Nsg14
g15
sg18
Nsg21
Nsg22
S'/home/grogan/Chaste/projects/MicrovesselChaste/src/simulation/angiogenesis/sprouting_rules/Owen2011SproutingRule.hpp'
p220
sg24
I00
sba(iwrapper_utilities.class_data
CppClass
p221
(dp222
g4
Nsg5
S'OffLatticeMigrationRule'
p223
sg7
Nsg8
g207
sg10
I01
sg11
I01
sg12
I00
sg13
Nsg14
g15
sg18
Nsg21
Nsg22
S'/home/grogan/Chaste/projects/MicrovesselChaste/src/simulation/angiogenesis/migration_rules/off_lattice/OffLatticeMigrationRule.hpp'
p224
sg24
I00
sba(iwrapper_utilities.class_data
CppClass
p225
(dp226
g4
Nsg5
S'OffLatticeSproutingRule'
p227
sg7
Nsg8
g207
sg10
I01
sg11
I01
sg12
I00
sg13
Nsg14
g15
sg18
Nsg21
Nsg22
S'/home/grogan/Chaste/projects/MicrovesselChaste/src/simulation/angiogenesis/sprouting_rules/OffLatticeSproutingRule.hpp'
p228
sg24
I00
sba(iwrapper_utilities.class_data
CppClass
p229
(dp230
g4
Nsg5
S'AbstractMigrationRule'
p231
sg7
Nsg8
g207
sg10
I01
sg11
I01
sg12
I00
sg13
Nsg14
g15
sg18
Nsg21
Nsg22
S'/home/grogan/Chaste/projects/MicrovesselChaste/src/simulation/angiogenesis/migration_rules/AbstractMigrationRule.hpp'
p232
sg24
I00
sba(iwrapper_utilities.class_data
CppClass
p233
(dp234
g4
Nsg5
S'AbstractSproutingRule'
p235
sg7
Nsg8
g207
sg10
I01
sg11
I01
sg12
I00
sg13
Nsg14
g15
sg18
Nsg21
Nsg22
S'/home/grogan/Chaste/projects/MicrovesselChaste/src/simulation/angiogenesis/sprouting_rules/AbstractSproutingRule.hpp'
p236
sg24
I00
sba(iwrapper_utilities.class_data
CppClass
p237
(dp238
g4
Nsg5
S'LatticeBasedMigrationRule'
p239
sg7
Nsg8
g207
sg10
I01
sg11
I01
sg12
I00
sg13
Nsg14
g15
sg18
Nsg21
Nsg22
S'/home/grogan/Chaste/projects/MicrovesselChaste/src/simulation/angiogenesis/migration_rules/lattice/LatticeBasedMigrationRule.hpp'
p240
sg24
I00
sba(iwrapper_utilities.class_data
CppClass
p241
(dp242
g4
Nsg5
S'CellPopulationMigrationRule'
p243
sg7
Nsg8
g207
sg10
I01
sg11
I01
sg12
I00
sg13
Nsg14
g15
sg18
Nsg21
Nsg22
S'/home/grogan/Chaste/projects/MicrovesselChaste/src/simulation/angiogenesis/migration_rules/lattice/CellPopulationMigrationRule.hpp'
p244
sg24
I00
sba(iwrapper_utilities.class_data
CppClass
p245
(dp246
g4
Nsg5
S'RegressionSolver'
p247
sg7
Nsg8
g207
sg10
I01
sg11
I01
sg12
I00
sg13
Nsg14
g15
sg18
Nsg21
Nsg22
S'/home/grogan/Chaste/projects/MicrovesselChaste/src/simulation/angiogenesis/regression/RegressionSolver.hpp'
p248
sg24
I00
sba(iwrapper_utilities.class_data
CppClass
p249
(dp250
g4
Nsg5
S'WallShearStressBasedRegressionSolver'
p251
sg7
Nsg8
g207
sg10
I01
sg11
I01
sg12
I00
sg13
Nsg14
g15
sg18
Nsg21
Nsg22
S'/home/grogan/Chaste/projects/MicrovesselChaste/src/simulation/angiogenesis/regression/WallShearStressBasedRegressionSolver.hpp'
p252
sg24
I00
sba(iwrapper_utilities.class_data
CppClass
p253
(dp254
g4
Nsg5
S'LatticeBasedSproutingRule'
p255
sg7
Nsg8
g207
sg10
I01
sg11
I01
sg12
I00
sg13
Nsg14
g15
sg18
Nsg21
Nsg22
S'/home/grogan/Chaste/projects/MicrovesselChaste/src/simulation/angiogenesis/sprouting_rules/LatticeBasedSproutingRule.hpp'
p256
sg24
I00
sba(iwrapper_utilities.class_data
CppClass
p257
(dp258
g4
Nsg5
S'DiscreteContinuumBoundaryCondition'
p259
sg7
Nsg8
S'pde'
p260
sg10
I01
sg11
I01
sg12
I00
sg13
Nsg14
g15
sg18
Nsg21
Nsg22
S'/home/grogan/Chaste/projects/MicrovesselChaste/src/pde/boundary_conditions/DiscreteContinuumBoundaryCondition.hpp'
p261
sg24
I00
sba(iwrapper_utilities.class_data
CppClass
p262
(dp263
g4
Nsg5
S'DiscreteSource'
p264
sg7
Nsg8
g260
sg10
I01
sg11
I01
sg12
I00
sg13
Nsg14
g15
sg18
Nsg21
Nsg22
S'/home/grogan/Chaste/projects/MicrovesselChaste/src/pde/discrete_sources/DiscreteSource.hpp'
p265
sg24
I00
sba(iwrapper_utilities.class_data
CppClass
p266
(dp267
g4
Nsg5
S'CellStateDependentDiscreteSource'
p268
sg7
Nsg8
g260
sg10
I01
sg11
I01
sg12
I00
sg13
Nsg14
g15
sg18
Nsg21
Nsg22
S'/home/grogan/Chaste/projects/MicrovesselChaste/src/pde/discrete_sources/CellStateDependentDiscreteSource.hpp'
p269
sg24
I00
sba(iwrapper_utilities.class_data
CppClass
p270
(dp271
g4
Nsg5
S'CellBasedDiscreteSource'
p272
sg7
Nsg8
g260
sg10
I01
sg11
I01
sg12
I00
sg13
Nsg14
g15
sg18
Nsg21
Nsg22
S'/home/grogan/Chaste/projects/MicrovesselChaste/src/pde/discrete_sources/CellBasedDiscreteSource.hpp'
p273
sg24
I00
sba(iwrapper_utilities.class_data
CppClass
p274
(dp275
g4
Nsg5
S'SolutionDependentDiscreteSource'
p276
sg7
Nsg8
g260
sg10
I01
sg11
I01
sg12
I00
sg13
Nsg14
g15
sg18
Nsg21
Nsg22
S'/home/grogan/Chaste/projects/MicrovesselChaste/src/pde/discrete_sources/SolutionDependentDiscreteSource.hpp'
p277
sg24
I00
sba(iwrapper_utilities.class_data
CppClass
p278
(dp279
g4
Nsg5
S'VesselBasedDiscreteSource'
p280
sg7
Nsg8
g260
sg10
I01
sg11
I01
sg12
I00
sg13
Nsg14
g15
sg18
Nsg21
Nsg22
S'/home/grogan/Chaste/projects/MicrovesselChaste/src/pde/discrete_sources/VesselBasedDiscreteSource.hpp'
p281
sg24
I00
sba(iwrapper_utilities.class_data
CppClass
p282
(dp283
g4
Nsg5
S'AbstractDiscreteContinuumPde'
p284
sg7
Nsg8
g260
sg10
I01
sg11
I01
sg12
I00
sg13
Nsg14
g93
sg18
Nsg21
Nsg22
S'/home/grogan/Chaste/projects/MicrovesselChaste/src/pde/problem/AbstractDiscreteContinuumPde.hpp'
p285
sg24
I00
sba(iwrapper_utilities.class_data
CppClass
p286
(dp287
g4
Nsg5
S'AbstractDiscreteContinuumLinearEllipticPde'
p288
sg7
Nsg8
g260
sg10
I01
sg11
I01
sg12
I00
sg13
Nsg14
g93
sg18
Nsg21
Nsg22
S'/home/grogan/Chaste/projects/MicrovesselChaste/src/pde/problem/linear_elliptic/AbstractDiscreteContinuumLinearEllipticPde.hpp'
p289
sg24
I00
sba(iwrapper_utilities.class_data
CppClass
p290
(dp291
g4
Nsg5
S'DiscreteContinuumLinearEllipticPde'
p292
sg7
Nsg8
g260
sg10
I01
sg11
I01
sg12
I00
sg13
Nsg14
g93
sg18
Nsg21
Nsg22
S'/home/grogan/Chaste/projects/MicrovesselChaste/src/pde/problem/linear_elliptic/DiscreteContinuumLinearEllipticPde.hpp'
p293
sg24
I00
sba(iwrapper_utilities.class_data
CppClass
p294
(dp295
g4
Nsg5
S'AbstractDiscreteContinuumNonLinearEllipticPde'
p296
sg7
Nsg8
g260
sg10
I01
sg11
I01
sg12
I00
sg13
Nsg14
g93
sg18
Nsg21
Nsg22
S'/home/grogan/Chaste/projects/MicrovesselChaste/src/pde/problem/nonlinear_elliptic/AbstractDiscreteContinuumNonLinearEllipticPde.hpp'
p297
sg24
I00
sba(iwrapper_utilities.class_data
CppClass
p298
(dp299
g4
Nsg5
S'MichaelisMentenSteadyStateDiffusionReactionPde'
p300
sg7
Nsg8
g260
sg10
I01
sg11
I01
sg12
I00
sg13
Nsg14
g93
sg18
Nsg21
Nsg22
S'/home/grogan/Chaste/projects/MicrovesselChaste/src/pde/problem/nonlinear_elliptic/MichaelisMentenSteadyStateDiffusionReactionPde.hpp'
p301
sg24
I00
sba(iwrapper_utilities.class_data
CppClass
p302
(dp303
g4
Nsg5
S'AbstractDiscreteContinuumParabolicPde'
p304
sg7
Nsg8
g260
sg10
I01
sg11
I01
sg12
I00
sg13
Nsg14
g93
sg18
Nsg21
Nsg22
S'/home/grogan/Chaste/projects/MicrovesselChaste/src/pde/problem/parabolic/AbstractDiscreteContinuumParabolicPde.hpp'
p305
sg24
I00
sba(iwrapper_utilities.class_data
CppClass
p306
(dp307
g4
Nsg5
S'ParabolicDiffusionReactionPde'
p308
sg7
Nsg8
g260
sg10
I01
sg11
I01
sg12
I00
sg13
Nsg14
g93
sg18
Nsg21
Nsg22
S'/home/grogan/Chaste/projects/MicrovesselChaste/src/pde/problem/parabolic/ParabolicDiffusionReactionPde.hpp'
p309
sg24
I00
sba(iwrapper_utilities.class_data
CppClass
p310
(dp311
g4
Nsg5
S'CoupledVegfPelletDiffusionReactionPde'
p312
sg7
Nsg8
g260
sg10
I01
sg11
I01
sg12
I00
sg13
Nsg14
g93
sg18
Nsg21
Nsg22
S'/home/grogan/Chaste/projects/MicrovesselChaste/src/pde/problem/parabolic/CoupledVegfPelletDiffusionReactionPde.hpp'
p313
sg24
I00
sba(iwrapper_utilities.class_data
CppClass
p314
(dp315
g4
Nsg5
S'AbstractDiscreteContinuumSolver'
p316
sg7
Nsg8
g260
sg10
I01
sg11
I01
sg12
I00
sg13
Nsg14
g15
sg18
Nsg21
Nsg22
S'/home/grogan/Chaste/projects/MicrovesselChaste/src/pde/solvers/AbstractDiscreteContinuumSolver.hpp'
p317
sg24
I00
sba(iwrapper_utilities.class_data
CppClass
p318
(dp319
g4
Nsg5
S'AbstractRegularGridDiscreteContinuumSolver'
p320
sg7
Nsg8
g260
sg10
I01
sg11
I01
sg12
I00
sg13
Nsg14
g15
sg18
Nsg21
Nsg22
S'/home/grogan/Chaste/projects/MicrovesselChaste/src/pde/solvers/AbstractRegularGridDiscreteContinuumSolver.hpp'
p321
sg24
I00
sba(iwrapper_utilities.class_data
CppClass
p322
(dp323
g4
Nsg5
S'AbstractUnstructuredGridDiscreteContinuumSolver'
p324
sg7
Nsg8
g260
sg10
I01
sg11
I01
sg12
I00
sg13
Nsg14
g15
sg18
Nsg21
Nsg22
S'/home/grogan/Chaste/projects/MicrovesselChaste/src/pde/solvers/AbstractUnstructuredGridDiscreteContinuumSolver.hpp'
p325
sg24
I00
sba(iwrapper_utilities.class_data
CppClass
p326
(dp327
g4
Nsg5
S'AbstractMixedGridDiscreteContinuumSolver'
p328
sg7
Nsg8
g260
sg10
I01
sg11
I01
sg12
I00
sg13
Nsg14
g15
sg18
Nsg21
Nsg22
S'/home/grogan/Chaste/projects/MicrovesselChaste/src/pde/solvers/AbstractMixedGridDiscreteContinuumSolver.hpp'
p329
sg24
I00
sba(iwrapper_utilities.class_data
CppClass
p330
(dp331
g4
Nsg5
S'AbstractFiniteDifferenceSolverBase'
p332
sg7
Nsg8
g260
sg10
I01
sg11
I01
sg12
I00
sg13
Nsg14
g15
sg18
Nsg21
Nsg22
S'/home/grogan/Chaste/projects/MicrovesselChaste/src/pde/solvers/finite_difference/AbstractFiniteDifferenceSolverBase.hpp'
p333
sg24
I00
sba(iwrapper_utilities.class_data
CppClass
p334
(dp335
g4
Nsg5
S'CoupledLumpedSystemFiniteDifferenceSolver'
p336
sg7
Nsg8
g260
sg10
I01
sg11
I01
sg12
I00
sg13
Nsg14
g15
sg18
Nsg21
Nsg22
S'/home/grogan/Chaste/projects/MicrovesselChaste/src/pde/solvers/finite_difference/CoupledLumpedSystemFiniteDifferenceSolver.hpp'
p337
sg24
I00
sba(iwrapper_utilities.class_data
CppClass
p338
(dp339
g4
Nsg5
S'SimpleLinearEllipticFiniteDifferenceSolver'
p340
sg7
Nsg8
g260
sg10
I01
sg11
I01
sg12
I00
sg13
Nsg14
g15
sg18
Nsg21
Nsg22
S'/home/grogan/Chaste/projects/MicrovesselChaste/src/pde/solvers/finite_difference/SimpleLinearEllipticFiniteDifferenceSolver.hpp'
p341
sg24
I00
sba(iwrapper_utilities.class_data
CppClass
p342
(dp343
g4
Nsg5
S'SimpleNonLinearEllipticFiniteDifferenceSolver'
p344
sg7
Nsg8
g260
sg10
I01
sg11
I01
sg12
I00
sg13
Nsg14
g15
sg18
Nsg21
Nsg22
S'/home/grogan/Chaste/projects/MicrovesselChaste/src/pde/solvers/finite_difference/SimpleNonLinearEllipticFiniteDifferenceSolver.hpp'
p345
sg24
I00
sba(iwrapper_utilities.class_data
CppClass
p346
(dp347
g4
Nsg5
S'AbstractFiniteElementSolverBase'
p348
sg7
Nsg8
g260
sg10
I01
sg11
I01
sg12
I00
sg13
Nsg14
g15
sg18
Nsg21
Nsg22
S'/home/grogan/Chaste/projects/MicrovesselChaste/src/pde/solvers/finite_element/AbstractFiniteElementSolverBase.hpp'
p349
sg24
I00
sba(iwrapper_utilities.class_data
CppClass
p350
(dp351
g4
Nsg5
S'CoupledLumpedSystemFiniteElementSolver'
p352
sg7
Nsg8
g260
sg10
I01
sg11
I01
sg12
I00
sg13
Nsg14
g15
sg18
Nsg21
Nsg22
S'/home/grogan/Chaste/projects/MicrovesselChaste/src/pde/solvers/finite_element/CoupledLumpedSystemFiniteElementSolver.hpp'
p353
sg24
I00
sba(iwrapper_utilities.class_data
CppClass
p354
(dp355
g4
Nsg5
S'SimpleLinearEllipticFiniteElementSolver'
p356
sg7
Nsg8
g260
sg10
I01
sg11
I01
sg12
I00
sg13
Nsg14
g15
sg18
Nsg21
Nsg22
S'/home/grogan/Chaste/projects/MicrovesselChaste/src/pde/solvers/finite_element/SimpleLinearEllipticFiniteElementSolver.hpp'
p357
sg24
I00
sba(iwrapper_utilities.class_data
CppClass
p358
(dp359
g4
Nsg5
S'SimpleNonLinearEllipticFiniteElementSolver'
p360
sg7
Nsg8
g260
sg10
I01
sg11
I01
sg12
I00
sg13
Nsg14
g15
sg18
Nsg21
Nsg22
S'/home/grogan/Chaste/projects/MicrovesselChaste/src/pde/solvers/finite_element/SimpleNonLinearEllipticFiniteElementSolver.hpp'
p361
sg24
I00
sba(iwrapper_utilities.class_data
CppClass
p362
(dp363
g4
Nsg5
S'SimpleParabolicFiniteElementSolver'
p364
sg7
Nsg8
g260
sg10
I01
sg11
I01
sg12
I00
sg13
Nsg14
g15
sg18
Nsg21
Nsg22
S'/home/grogan/Chaste/projects/MicrovesselChaste/src/pde/solvers/finite_element/SimpleParabolicFiniteElementSolver.hpp'
p365
sg24
I00
sba(iwrapper_utilities.class_data
CppClass
p366
(dp367
g4
Nsg5
S'AbstractGreensFunctionSolverBase'
p368
sg7
Nsg8
g260
sg10
I01
sg11
I01
sg12
I00
sg13
Nsg14
g15
sg18
Nsg21
Nsg22
S'/home/grogan/Chaste/projects/MicrovesselChaste/src/pde/solvers/greens_function/AbstractGreensFunctionSolverBase.hpp'
p369
sg24
I00
sba(iwrapper_utilities.class_data
CppClass
p370
(dp371
g4
Nsg5
S'SimpleLinearEllipticGreensFunctionSolver'
p372
sg7
Nsg8
g260
sg10
I01
sg11
I01
sg12
I00
sg13
Nsg14
g15
sg18
Nsg21
Nsg22
S'/home/grogan/Chaste/projects/MicrovesselChaste/src/pde/solvers/greens_function/SimpleLinearEllipticGreensFunctionSolver.hpp'
p373
sg24
I00
sba(iwrapper_utilities.class_data
CppClass
p374
(dp375
g4
Nsg5
S'FunctionMap'
p376
sg7
Nsg8
g260
sg10
I01
sg11
I01
sg12
I00
sg13
Nsg14
g15
sg18
Nsg21
Nsg22
S'/home/grogan/Chaste/projects/MicrovesselChaste/src/pde/solvers/FunctionMap.hpp'
p377
sg24
I00
sba(iwrapper_utilities.class_data
CppClass
p378
(dp379
g4
Nsg5
S'DensityMap'
p380
sg7
Nsg8
g260
sg10
I01
sg11
I01
sg12
I00
sg13
Nsg14
g15
sg18
Nsg21
Nsg22
S'/home/grogan/Chaste/projects/MicrovesselChaste/src/pde/solvers/DensityMap.hpp'
p381
sg24
I00
sba(iwrapper_utilities.class_data
CppClass
p382
(dp383
g4
Nsg5
S'MicrovesselSolver'
p384
sg7
Nsg8
g207
sg10
I01
sg11
I01
sg12
I00
sg13
Nsg14
g15
sg18
Nsg21
Nsg22
S'/home/grogan/Chaste/projects/MicrovesselChaste/src/simulation/MicrovesselSolver.hpp'
p385
sg24
I00
sba(iwrapper_utilities.class_data
CppClass
p386
(dp387
g4
Nsg5
S'MicrovesselSimulationModifier'
p388
sg7
Nsg8
g207
sg10
I01
sg11
I01
sg12
I00
sg13
Nsg14
g15
sg18
Nsg21
Nsg22
S'/home/grogan/Chaste/projects/MicrovesselChaste/src/simulation/modifiers/MicrovesselSimulationModifier.hpp'
p389
sg24
I00
sba(iwrapper_utilities.class_data
CppClass
p390
(dp391
g4
Nsg5
S'AbstractMicrovesselModifier'
p392
sg7
Nsg8
Nsg10
I01
sg11
I01
sg12
I00
sg13
Nsg14
Nsg18
Nsg21
Nsg22
Nsg24
I00
sba(iwrapper_utilities.class_data
CppClass
p393
(dp394
g4
Nsg5
S'VtkSceneMicrovesselModifier'
p395
sg7
Nsg8
Nsg10
I01
sg11
I01
sg12
I00
sg13
Nsg14
Nsg18
Nsg21
Nsg22
Nsg24
I00
sba(iwrapper_utilities.class_data
CppClass
p396
(dp397
g4
Nsg5
S'Owen2011TrackingModifier'
p398
sg7
Nsg8
Nsg10
I01
sg11
I01
sg12
I00
sg13
Nsg14
g15
sg18
Nsg21
Nsg22
S'/home/grogan/Chaste/projects/MicrovesselChaste/src/ode/Owen2011TrackingModifier.hpp'
p399
sg24
I00
sba(iwrapper_utilities.class_data
CppClass
p400
(dp401
g4
Nsg5
S'AbstractCellBasedSimulationModifier'
p402
sg7
Nsg8
g207
sg10
I01
sg11
I01
sg12
I00
sg13
Nsg14
g93
sg18
Nsg21
Nsg22
S'/home/grogan/Chaste/cell_based/src/simulation/modifiers/AbstractCellBasedSimulationModifier.hpp'
p403
sg24
I00
sba(iwrapper_utilities.class_data
CppClass
p404
(dp405
g4
Nsg5
S'VesselNetworkReader'
p406
sg7
Nsg8
S'vessel'
p407
sg10
I01
sg11
I01
sg12
I00
sg13
Nsg14
g15
sg18
Nsg21
Nsg22
S'/home/grogan/Chaste/projects/MicrovesselChaste/src/population/vessel/readers/VesselNetworkReader.hpp'
p408
sg24
I00
sba(iwrapper_utilities.class_data
CppClass
p409
(dp410
g4
Nsg5
S'NodeFlowProperties'
p411
sg7
Nsg8
g407
sg10
I01
sg11
I01
sg12
I00
sg13
Nsg14
g15
sg18
Nsg21
Nsg22
S'/home/grogan/Chaste/projects/MicrovesselChaste/src/population/vessel/properties/NodeFlowProperties.hpp'
p412
sg24
I00
sba(iwrapper_utilities.class_data
CppClass
p413
(dp414
g4
Nsg5
S'SegmentFlowProperties'
p415
sg7
Nsg8
g407
sg10
I01
sg11
I01
sg12
I00
sg13
Nsg14
g15
sg18
Nsg21
Nsg22
S'/home/grogan/Chaste/projects/MicrovesselChaste/src/population/vessel/properties/SegmentFlowProperties.hpp'
p416
sg24
I00
sba(iwrapper_utilities.class_data
CppClass
p417
(dp418
g4
Nsg5
S'VesselFlowProperties'
p419
sg7
Nsg8
g407
sg10
I01
sg11
I01
sg12
I00
sg13
Nsg14
g15
sg18
Nsg21
Nsg22
S'/home/grogan/Chaste/projects/MicrovesselChaste/src/population/vessel/properties/VesselFlowProperties.hpp'
p420
sg24
I00
sba(iwrapper_utilities.class_data
CppClass
p421
(dp422
g4
Nsg5
S'VesselNode'
p423
sg7
Nsg8
g407
sg10
I01
sg11
I01
sg12
I00
sg13
Nsg14
g15
sg18
Nsg21
Nsg22
S'/home/grogan/Chaste/projects/MicrovesselChaste/src/population/vessel/VesselNode.hpp'
p424
sg24
I00
sba(iwrapper_utilities.class_data
CppClass
p425
(dp426
g4
Nsg5
S'VesselSegment'
p427
sg7
Nsg8
g407
sg10
I01
sg11
I01
sg12
I00
sg13
Nsg14
g15
sg18
Nsg21
Nsg22
S'/home/grogan/Chaste/projects/MicrovesselChaste/src/population/vessel/VesselSegment.hpp'
p428
sg24
I00
sba(iwrapper_utilities.class_data
CppClass
p429
(dp430
g4
Nsg5
S'Vessel'
p431
sg7
Nsg8
g407
sg10
I01
sg11
I01
sg12
I00
sg13
Nsg14
g15
sg18
Nsg21
Nsg22
S'/home/grogan/Chaste/projects/MicrovesselChaste/src/population/vessel/Vessel.hpp'
p432
sg24
I00
sba(iwrapper_utilities.class_data
CppClass
p433
(dp434
g4
Nsg5
S'VesselNetwork'
p435
sg7
Nsg8
g407
sg10
I01
sg11
I01
sg12
I00
sg13
Nsg14
g15
sg18
Nsg21
Nsg22
S'/home/grogan/Chaste/projects/MicrovesselChaste/src/population/vessel/VesselNetwork.hpp'
p436
sg24
I00
sba(iwrapper_utilities.class_data
CppClass
p437
(dp438
g4
Nsg5
S'VesselNetworkGenerator'
p439
sg7
Nsg8
g407
sg10
I01
sg11
I01
sg12
I00
sg13
Nsg14
g15
sg18
Nsg21
Nsg22
S'/home/grogan/Chaste/projects/MicrovesselChaste/src/population/vessel/generators/VesselNetworkGenerator.hpp'
p440
sg24
I00
sba(iwrapper_utilities.class_data
CppClass
p441
(dp442
g4
Nsg5
S'AbstractVesselNetworkComponent'
p443
sg7
Nsg8
g407
sg10
I01
sg11
I01
sg12
I00
sg13
Nsg14
g15
sg18
Nsg21
Nsg22
S'/home/grogan/Chaste/projects/MicrovesselChaste/src/population/vessel/AbstractVesselNetworkComponent.hpp'
p444
sg24
I00
sba(iwrapper_utilities.class_data
CppClass
p445
(dp446
g4
Nsg5
S'VesselNetworkCellPopulationInteractor'
p447
sg7
Nsg8
Nsg10
I01
sg11
I01
sg12
I00
sg13
Nsg14
g15
sg18
Nsg21
Nsg22
S'/home/grogan/Chaste/projects/MicrovesselChaste/src/population/VesselNetworkCellPopulationInteractor.hpp'
p448
sg24
I00
sba(iwrapper_utilities.class_data
CppClass
p449
(dp450
g4
Nsg5
S'VesselNetworkWriter'
p451
sg7
Nsg8
g407
sg10
I01
sg11
I01
sg12
I00
sg13
Nsg14
g15
sg18
Nsg21
Nsg22
S'/home/grogan/Chaste/projects/MicrovesselChaste/src/population/vessel/writers/VesselNetworkWriter.hpp'
p452
sg24
I00
sba(iwrapper_utilities.class_data
CppClass
p453
(dp454
g4
Nsg5
S'DistanceMap'
p455
sg7
Nsg8
g407
sg10
I01
sg11
I01
sg12
I00
sg13
Nsg14
g15
sg18
Nsg21
Nsg22
S'/home/grogan/Chaste/projects/MicrovesselChaste/src/population/vessel/calculators/DistanceMap.hpp'
p456
sg24
I00
sba(iwrapper_utilities.class_data
CppClass
p457
(dp458
g4
Nsg5
S'VesselNetworkGeometryCalculator'
p459
sg7
Nsg8
g407
sg10
I01
sg11
I01
sg12
I00
sg13
Nsg14
g15
sg18
Nsg21
Nsg22
S'/home/grogan/Chaste/projects/MicrovesselChaste/src/population/vessel/calculators/VesselNetworkGeometryCalculator.hpp'
p460
sg24
I00
sba(iwrapper_utilities.class_data
CppClass
p461
(dp462
g4
Nsg5
S'VesselNetworkGraphCalculator'
p463
sg7
Nsg8
g407
sg10
I01
sg11
I01
sg12
I00
sg13
Nsg14
g15
sg18
Nsg21
Nsg22
S'/home/grogan/Chaste/projects/MicrovesselChaste/src/population/vessel/calculators/VesselNetworkGraphCalculator.hpp'
p464
sg24
I00
sba(iwrapper_utilities.class_data
CppClass
p465
(dp466
g4
Nsg5
S'AbstractVesselNetworkComponentProperties'
p467
sg7
Nsg8
g407
sg10
I01
sg11
I01
sg12
I00
sg13
Nsg14
g15
sg18
Nsg21
Nsg22
S'/home/grogan/Chaste/projects/MicrovesselChaste/src/population/vessel/properties/AbstractVesselNetworkComponentProperties.hpp'
p468
sg24
I00
sba(iwrapper_utilities.class_data
CppClass
p469
(dp470
g4
Nsg5
S'AbstractVesselNetworkComponentFlowProperties'
p471
sg7
Nsg8
g407
sg10
I01
sg11
I01
sg12
I00
sg13
Nsg14
g15
sg18
Nsg21
Nsg22
S'/home/grogan/Chaste/projects/MicrovesselChaste/src/population/vessel/properties/AbstractVesselNetworkComponentFlowProperties.hpp'
p472
sg24
I00
sba(iwrapper_utilities.class_data
CppClass
p473
(dp474
g4
Nsg5
S'AbstractVesselNetworkComponentChemicalProperties'
p475
sg7
Nsg8
g407
sg10
I01
sg11
I01
sg12
I00
sg13
Nsg14
g15
sg18
Nsg21
Nsg22
S'/home/grogan/Chaste/projects/MicrovesselChaste/src/population/vessel/properties/AbstractVesselNetworkComponentChemicalProperties.hpp'
p476
sg24
I00
sba(iwrapper_utilities.class_data
CppClass
p477
(dp478
g4
Nsg5
S'MicrovesselVtkScene'
p479
sg7
Nsg8
S'visualization'
p480
sg10
I01
sg11
I01
sg12
I00
sg13
Nsg14
g15
sg18
Nsg21
Nsg22
S'/home/grogan/Chaste/projects/MicrovesselChaste/src/utility/visualization/MicrovesselVtkScene.hpp'
p481
sg24
I00
sba(iwrapper_utilities.class_data
CppClass
p482
(dp483
g4
Nsg5
S'CellPopulationActorGenerator'
p484
sg7
Nsg8
g480
sg10
I01
sg11
I01
sg12
I00
sg13
Nsg14
g15
sg18
Nsg21
Nsg22
S'/home/grogan/Chaste/projects/MicrovesselChaste/src/utility/visualization/CellPopulationActorGenerator.hpp'
p485
sg24
I00
sba(iwrapper_utilities.class_data
CppClass
p486
(dp487
g4
Nsg5
S'DiscreteContinuumMeshActorGenerator'
p488
sg7
Nsg8
g480
sg10
I01
sg11
I01
sg12
I00
sg13
Nsg14
g15
sg18
Nsg21
Nsg22
S'/home/grogan/Chaste/projects/MicrovesselChaste/src/utility/visualization/DiscreteContinuumMeshActorGenerator.hpp'
p489
sg24
I00
sba(iwrapper_utilities.class_data
CppClass
p490
(dp491
g4
Nsg5
S'PartActorGenerator'
p492
sg7
Nsg8
g480
sg10
I01
sg11
I01
sg12
I00
sg13
Nsg14
g15
sg18
Nsg21
Nsg22
S'/home/grogan/Chaste/projects/MicrovesselChaste/src/utility/visualization/PartActorGenerator.hpp'
p493
sg24
I00
sba(iwrapper_utilities.class_data
CppClass
p494
(dp495
g4
Nsg5
S'RegularGridActorGenerator'
p496
sg7
Nsg8
g480
sg10
I01
sg11
I01
sg12
I00
sg13
Nsg14
g15
sg18
Nsg21
Nsg22
S'/home/grogan/Chaste/projects/MicrovesselChaste/src/utility/visualization/RegularGridActorGenerator.hpp'
p497
sg24
I00
sba(iwrapper_utilities.class_data
CppClass
p498
(dp499
g4
Nsg5
S'VesselNetworkActorGenerator'
p500
sg7
Nsg8
g480
sg10
I01
sg11
I01
sg12
I00
sg13
Nsg14
g15
sg18
Nsg21
Nsg22
S'/home/grogan/Chaste/projects/MicrovesselChaste/src/utility/visualization/VesselNetworkActorGenerator.hpp'
p501
sg24
I00
sba(iwrapper_utilities.class_data
CppClass
p502
(dp503
g4
Nsg5
S'AbstractActorGenerator'
p504
sg7
Nsg8
g480
sg10
I01
sg11
I01
sg12
I00
sg13
Nsg14
g15
sg18
Nsg21
Nsg22
S'/home/grogan/Chaste/projects/MicrovesselChaste/src/utility/visualization/AbstractActorGenerator.hpp'
p505
sg24
I00
sba(iwrapper_utilities.class_data
CppClass
p506
(dp507
g4
Nsg5
g392
sg7
Nsg8
g207
sg10
I01
sg11
I01
sg12
I00
sg13
Nsg14
g15
sg18
Nsg21
Nsg22
S'/home/grogan/Chaste/projects/MicrovesselChaste/src/simulation/modifiers/AbstractMicrovesselModifier.hpp'
p508
sg24
I00
sba(iwrapper_utilities.class_data
CppClass
p509
(dp510
g4
Nsg5
g395
sg7
Nsg8
g207
sg10
I01
sg11
I01
sg12
I00
sg13
Nsg14
g15
sg18
Nsg21
Nsg22
S'/home/grogan/Chaste/projects/MicrovesselChaste/src/simulation/modifiers/VtkSceneMicrovesselModifier.hpp'
p511
sg24
I00
sba(iwrapper_utilities.class_data
CppClass
p512
(dp513
g4
Nsg5
S'ParameterInstance'
p514
sg7
Nsg8
S'utility'
p515
sg10
I01
sg11
I01
sg12
I00
sg13
Nsg14
Nsg18
Nsg21
Nsg22
S'/home/grogan/Chaste/projects/MicrovesselChaste/src/utility/ParameterInstance.hpp'
p516
sg24
I00
sba(iwrapper_utilities.class_data
CppClass
p517
(dp518
g4
Nsg5
S'BaseUnits'
p519
sg7
Nsg8
g515
sg10
I01
sg11
I01
sg12
I00
sg13
Nsg14
Nsg18
Nsg21
Nsg22
S'/home/grogan/Chaste/projects/MicrovesselChaste/src/utility/BaseUnits.hpp'
p520
sg24
I00
sba(iwrapper_utilities.class_data
CppClass
p521
(dp522
g4
Nsg5
S'UnitCollection'
p523
sg7
Nsg8
g515
sg10
I01
sg11
I01
sg12
I00
sg13
Nsg14
Nsg18
Nsg21
Nsg22
S'/home/grogan/Chaste/projects/MicrovesselChaste/src/utility/UnitCollection.hpp'
p524
sg24
I00
sba(iwrapper_utilities.class_data
CppClass
p525
(dp526
g4
Nsg5
S'ParameterCollection'
p527
sg7
Nsg8
g515
sg10
I01
sg11
I01
sg12
I00
sg13
Nsg14
Nsg18
Nsg21
Nsg22
S'/home/grogan/Chaste/projects/MicrovesselChaste/src/utility/ParameterCollection.hpp'
p528
sg24
I00
sba(iwrapper_utilities.class_data
CppClass
p529
(dp530
g4
Nsg5
S'BaseParameterInstance'
p531
sg7
Nsg8
g515
sg10
I01
sg11
I01
sg12
I00
sg13
Nsg14
Nsg18
Nsg21
Nsg22
S'/home/grogan/Chaste/projects/MicrovesselChaste/src/utility/BaseParameterInstance.hpp'
p532
sg24
I00
sba(iwrapper_utilities.class_data
CppClass
p533
(dp534
g4
Nsg5
S'Owen11Parameters'
p535
sg7
Nsg8
g515
sg10
I01
sg11
I01
sg12
I00
sg13
Nsg14
Nsg18
Nsg21
Nsg22
S'/home/grogan/Chaste/projects/MicrovesselChaste/src/utility/literature_parameters/Owen11Parameters.hpp'
p536
sg24
I00
sba(iwrapper_utilities.class_data
CppClass
p537
(dp538
g4
Nsg5
S'Connor17Parameters'
p539
sg7
Nsg8
g515
sg10
I01
sg11
I01
sg12
I00
sg13
Nsg14
Nsg18
Nsg21
Nsg22
S'/home/grogan/Chaste/projects/MicrovesselChaste/src/utility/literature_parameters/Connor17Parameters.hpp'
p540
sg24
I00
sba(iwrapper_utilities.class_data
CppClass
p541
(dp542
g4
Nsg5
S'Secomb04Parameters'
p543
sg7
Nsg8
g515
sg10
I01
sg11
I01
sg12
I00
sg13
Nsg14
Nsg18
Nsg21
Nsg22
S'/home/grogan/Chaste/projects/MicrovesselChaste/src/utility/literature_parameters/Secomb04Parameters.hpp'
p544
sg24
I00
sba(iwrapper_utilities.class_data
CppClass
p545
(dp546
g4
Nsg5
S'GenericParameters'
p547
sg7
Nsg8
g515
sg10
I01
sg11
I01
sg12
I00
sg13
Nsg14
Nsg18
Nsg21
Nsg22
S'/home/grogan/Chaste/projects/MicrovesselChaste/src/utility/literature_parameters/GenericParameters.hpp'
p548
sg24
I00
sba.