(lp1
(iwrapper_utilities.class_data
CppClass
p2
(dp3
S'pointer_return_methods'
p4
NsS'name_replacements'
p5
(dp6
S'std::string'
p7
S'String'
p8
sS'c_vector'
p9
S'CVector'
p10
sS'std::set'
p11
S'Set'
p12
sS'std::pair'
p13
S'Pair'
p14
sS'std::map'
p15
S'Map'
p16
sS'boost::shared_ptr'
p17
S'SharedPtr'
p18
sS'std::vector'
p19
S'Vector'
p20
sS'*'
S'Ptr'
p21
sS'unsigned'
p22
S'Unsigned'
p23
sS'unsigned int'
p24
g23
sS'double'
p25
S'Double'
p26
sS'Unsigned int'
p27
g23
ssS'name'
p28
S'std::string'
p29
sS'include_ptr_self'
p30
I00
sS'include_raw_ptr_self'
p31
I00
sS'declaration_code'
p32
NsS'component'
p33
S'extra'
p34
sS'needs_include_file'
p35
I00
sS'needs_instantiation'
p36
I00
sS'skip_wrapping'
p37
I01
sS'excluded_variables'
p38
NsS'template_args'
p39
NsS'excluded_methods'
p40
NsS'name_override'
p41
NsS'include_vec_ptr_self'
p42
I00
sS'full_path'
p43
NsS'include_file_only'
p44
I00
sba(iwrapper_utilities.class_data
CppClass
p45
(dp46
g4
Nsg5
(dp47
g7
g8
sg9
g10
sg11
g12
sg13
g14
sg15
g16
sg17
g18
sg19
g20
sS'*'
g21
sg22
g23
sg24
g23
sg25
g26
sg27
g23
ssg28
S'std::map'
p48
sg30
I00
sg31
I00
sg32
Nsg33
g34
sg35
I00
sg36
I00
sg37
I01
sg38
Nsg39
(lp49
(lp50
g29
ag29
aa(lp51
S'std::string, double'
p52
aasg40
Nsg41
Nsg42
I00
sg43
Nsg44
I00
sba(iwrapper_utilities.class_data
CppClass
p53
(dp54
g4
Nsg5
(dp55
g7
g8
sg9
g10
sg11
g12
sg13
g14
sg15
g16
sg17
g18
sg19
g20
sS'*'
g21
sg22
g23
sg24
g23
sg25
g26
sg27
g23
ssg28
S'std::set'
p56
sg30
I00
sg31
I00
sg32
Nsg33
g34
sg35
I00
sg36
I00
sg37
I01
sg38
Nsg39
(lp57
(lp58
g22
aasg40
Nsg41
Nsg42
I00
sg43
Nsg44
I00
sba(iwrapper_utilities.class_data
CppClass
p59
(dp60
g4
Nsg5
(dp61
g7
g8
sg9
g10
sg11
g12
sg13
g14
sg15
g16
sg17
g18
sg19
g20
sS'*'
g21
sg22
g23
sg24
g23
sg25
g26
sg27
g23
ssg28
S'std::pair'
p62
sg30
I00
sg31
I00
sg32
Nsg33
g34
sg35
I00
sg36
I00
sg37
I01
sg38
Nsg39
(lp63
(lp64
S'unsigned int, unsigned int'
p65
aa(lp66
S'std::vector<double>, double'
p67
aasg40
Nsg41
Nsg42
I00
sg43
Nsg44
I00
sba(iwrapper_utilities.class_data
CppClass
p68
(dp69
g4
Nsg5
(dp70
g7
g8
sg9
g10
sg11
g12
sg13
g14
sg15
g16
sg17
g18
sg19
g20
sS'*'
g21
sg22
g23
sg24
g23
sg25
g26
sg27
g23
ssg28
S'std::vector'
p71
sg30
I00
sg31
I00
sg32
Nsg33
g34
sg35
I00
sg36
I00
sg37
I01
sg38
Nsg39
(lp72
(lp73
g25
aa(lp74
g22
aa(lp75
S'int'
p76
aa(lp77
S'bool'
p78
aa(lp79
g29
aa(lp80
S'c_vector<double,3>'
p81
aa(lp82
S'c_vector<double,2>'
p83
aa(lp84
S'c_vector<unsigned,5>'
p85
aa(lp86
S'std::set<unsigned int>'
p87
aa(lp88
S'std::vector<unsigned int>'
p89
aa(lp90
S'std::pair<unsigned int, unsigned int>'
p91
aa(lp92
S'std::pair<std::vector<double>, double>'
p93
aasg40
Nsg41
Nsg42
I00
sg43
Nsg44
I00
sba(iwrapper_utilities.class_data
CppClass
p94
(dp95
g4
Nsg5
(dp96
g7
g8
sg9
g10
sg11
g12
sg13
g14
sg15
g16
sg17
g18
sg19
g20
sS'*'
g21
sg22
g23
sg24
g23
sg25
g26
sg27
g23
ssg28
g9
sg30
I00
sg31
I00
sg32
Nsg33
g34
sg35
I00
sg36
I00
sg37
I01
sg38
Nsg39
(lp97
(lp98
g25
aI2
aa(lp99
g25
aI3
aa(lp100
g22
aI5
aasg40
Nsg41
Nsg42
I00
sg43
Nsg44
I00
sba(iwrapper_utilities.class_data
CppClass
p101
(dp102
g4
Nsg5
(dp103
g7
g8
sg9
g10
sg11
g12
sg13
g14
sg15
g16
sg17
g18
sg19
g20
sS'*'
g21
sg22
g23
sg24
g23
sg25
g26
sg27
g23
ssg28
S'Polygon'
p104
sg30
I00
sg31
I00
sg32
Nsg33
S'geometry'
p105
sg35
I01
sg36
I01
sg37
I00
sg38
Nsg39
(lp106
(lp107
I2
aa(lp108
I3
aasg40
Nsg41
Nsg42
I01
sg43
S'/home/grogan/Chaste/projects/MicrovesselChaste/src/geometry/Polygon.hpp'
p109
sg44
I00
sba(iwrapper_utilities.class_data
CppClass
p110
(dp111
g4
Nsg5
(dp112
g7
g8
sg9
g10
sg11
g12
sg13
g14
sg15
g16
sg17
g18
sg19
g20
sS'*'
g21
sg22
g23
sg24
g23
sg25
g26
sg27
g23
ssg28
S'Facet'
p113
sg30
I00
sg31
I00
sg32
Nsg33
g105
sg35
I01
sg36
I01
sg37
I00
sg38
Nsg39
g106
sg40
Nsg41
Nsg42
I01
sg43
S'/home/grogan/Chaste/projects/MicrovesselChaste/src/geometry/Facet.hpp'
p114
sg44
I00
sba(iwrapper_utilities.class_data
CppClass
p115
(dp116
g4
Nsg5
(dp117
g7
g8
sg9
g10
sg11
g12
sg13
g14
sg15
g16
sg17
g18
sg19
g20
sS'*'
g21
sg22
g23
sg24
g23
sg25
g26
sg27
g23
ssg28
S'Part'
p118
sg30
I00
sg31
I00
sg32
Nsg33
g105
sg35
I01
sg36
I01
sg37
I00
sg38
Nsg39
g106
sg40
Nsg41
Nsg42
I00
sg43
S'/home/grogan/Chaste/projects/MicrovesselChaste/src/geometry/Part.hpp'
p119
sg44
I00
sba(iwrapper_utilities.class_data
CppClass
p120
(dp121
g4
Nsg5
(dp122
g7
g8
sg9
g10
sg11
g12
sg13
g14
sg15
g16
sg17
g18
sg19
g20
sS'*'
g21
sg22
g23
sg24
g23
sg25
g26
sg27
g23
ssg28
S'MappableGridGenerator'
p123
sg30
I00
sg31
I00
sg32
Nsg33
g105
sg35
I01
sg36
I01
sg37
I00
sg38
Nsg39
Nsg40
Nsg41
Nsg42
I00
sg43
S'/home/grogan/Chaste/projects/MicrovesselChaste/src/geometry/generators/MappableGridGenerator.hpp'
p124
sg44
I00
sba(iwrapper_utilities.class_data
CppClass
p125
(dp126
g4
Nsg5
(dp127
g7
g8
sg9
g10
sg11
g12
sg13
g14
sg15
g16
sg17
g18
sg19
g20
sS'*'
g21
sg22
g23
sg24
g23
sg25
g26
sg27
g23
ssg28
S'NetworkToSurface'
p128
sg30
I00
sg31
I00
sg32
Nsg33
g105
sg35
I01
sg36
I01
sg37
I00
sg38
Nsg39
g106
sg40
Nsg41
Nsg42
I00
sg43
S'/home/grogan/Chaste/projects/MicrovesselChaste/src/geometry/generators/NetworkToSurface.hpp'
p129
sg44
I00
sba(iwrapper_utilities.class_data
CppClass
p130
(dp131
g4
Nsg5
(dp132
g7
g8
sg9
g10
sg11
g12
sg13
g14
sg15
g16
sg17
g18
sg19
g20
sS'*'
g21
sg22
g23
sg24
g23
sg25
g26
sg27
g23
ssg28
S'VesselSurfaceGenerator'
p133
sg30
I00
sg31
I00
sg32
Nsg33
g105
sg35
I01
sg36
I01
sg37
I00
sg38
Nsg39
g106
sg40
Nsg41
Nsg42
I00
sg43
S'/home/grogan/Chaste/projects/MicrovesselChaste/src/geometry/generators/VesselSurfaceGenerator.hpp'
p134
sg44
I00
sba(iwrapper_utilities.class_data
CppClass
p135
(dp136
g4
Nsg5
(dp137
g7
g8
sg9
g10
sg11
g12
sg13
g14
sg15
g16
sg17
g18
sg19
g20
sS'*'
g21
sg22
g23
sg24
g23
sg25
g26
sg27
g23
ssg28
S'BoundaryExtractor'
p138
sg30
I00
sg31
I00
sg32
Nsg33
g105
sg35
I01
sg36
I01
sg37
I00
sg38
Nsg39
Nsg40
Nsg41
Nsg42
I00
sg43
S'/home/grogan/Chaste/projects/MicrovesselChaste/src/geometry/tools/BoundaryExtractor.hpp'
p139
sg44
I00
sba(iwrapper_utilities.class_data
CppClass
p140
(dp141
g4
Nsg5
(dp142
g7
g8
sg9
g10
sg11
g12
sg13
g14
sg15
g16
sg17
g18
sg19
g20
sS'*'
g21
sg22
g23
sg24
g23
sg25
g26
sg27
g23
ssg28
S'SurfaceCleaner'
p143
sg30
I00
sg31
I00
sg32
Nsg33
g105
sg35
I01
sg36
I01
sg37
I00
sg38
Nsg39
Nsg40
Nsg41
Nsg42
I00
sg43
S'/home/grogan/Chaste/projects/MicrovesselChaste/src/geometry/tools/SurfaceCleaner.hpp'
p144
sg44
I00
sba(iwrapper_utilities.class_data
CppClass
p145
(dp146
g4
Nsg5
(dp147
g7
g8
sg9
g10
sg11
g12
sg13
g14
sg15
g16
sg17
g18
sg19
g20
sS'*'
g21
sg22
g23
sg24
g23
sg25
g26
sg27
g23
ssg28
S'GeometryFormat'
p148
sg30
I00
sg31
I00
sg32
Nsg33
g105
sg35
I00
sg36
I01
sg37
I00
sg38
Nsg39
Nsg40
Nsg41
Nsg42
I00
sg43
Nsg44
I00
sba(iwrapper_utilities.class_data
CppClass
p149
(dp150
g4
Nsg5
(dp151
g7
g8
sg9
g10
sg11
g12
sg13
g14
sg15
g16
sg17
g18
sg19
g20
sS'*'
g21
sg22
g23
sg24
g23
sg25
g26
sg27
g23
ssg28
S'GeometryWriter'
p152
sg30
I00
sg31
I00
sg32
Nsg33
g105
sg35
I01
sg36
I01
sg37
I00
sg38
Nsg39
Nsg40
Nsg41
Nsg42
I00
sg43
S'/home/grogan/Chaste/projects/MicrovesselChaste/src/geometry/writers/GeometryWriter.hpp'
p153
sg44
I00
sba(iwrapper_utilities.class_data
CppClass
p154
(dp155
g4
Nsg5
(dp156
g7
g8
sg9
g10
sg11
g12
sg13
g14
sg15
g16
sg17
g18
sg19
g20
sS'*'
g21
sg22
g23
sg24
g23
sg25
g26
sg27
g23
ssg28
S'AbstractDiscreteContinuumGrid'
p157
sg30
I00
sg31
I00
sg32
Nsg33
S'mesh'
p158
sg35
I01
sg36
I01
sg37
I00
sg38
Nsg39
(lp159
(lp160
I2
aI2
aa(lp161
I3
aI3
aasg40
Nsg41
Nsg42
I00
sg43
S'/home/grogan/Chaste/projects/MicrovesselChaste/src/mesh/AbstractDiscreteContinuumGrid.hpp'
p162
sg44
I00
sba(iwrapper_utilities.class_data
CppClass
p163
(dp164
g4
Nsg5
(dp165
g7
g8
sg9
g10
sg11
g12
sg13
g14
sg15
g16
sg17
g18
sg19
g20
sS'*'
g21
sg22
g23
sg24
g23
sg25
g26
sg27
g23
ssg28
S'DimensionalChastePoint'
p166
sg30
I00
sg31
I00
sg32
Nsg33
g158
sg35
I01
sg36
I01
sg37
I00
sg38
Nsg39
g106
sg40
Nsg41
Nsg42
I01
sg43
S'/home/grogan/Chaste/projects/MicrovesselChaste/src/mesh/DimensionalChastePoint.hpp'
p167
sg44
I00
sba(iwrapper_utilities.class_data
CppClass
p168
(dp169
g4
Nsg5
(dp170
g7
g8
sg9
g10
sg11
g12
sg13
g14
sg15
g16
sg17
g18
sg19
g20
sS'*'
g21
sg22
g23
sg24
g23
sg25
g26
sg27
g23
ssg28
S'DiscreteContinuumMesh'
p171
sg30
I00
sg31
I00
sg32
Nsg33
g158
sg35
I01
sg36
I01
sg37
I00
sg38
Nsg39
g159
sg40
Nsg41
Nsg42
I00
sg43
S'/home/grogan/Chaste/projects/MicrovesselChaste/src/mesh/DiscreteContinuumMesh.hpp'
p172
sg44
I00
sba(iwrapper_utilities.class_data
CppClass
p173
(dp174
g4
Nsg5
(dp175
g7
g8
sg9
g10
sg11
g12
sg13
g14
sg15
g16
sg17
g18
sg19
g20
sS'*'
g21
sg22
g23
sg24
g23
sg25
g26
sg27
g23
ssg28
S'DiscreteContinuumMeshGenerator'
p176
sg30
I00
sg31
I00
sg32
Nsg33
g158
sg35
I01
sg36
I01
sg37
I00
sg38
Nsg39
g159
sg40
Nsg41
Nsg42
I00
sg43
S'/home/grogan/Chaste/projects/MicrovesselChaste/src/mesh/DiscreteContinuumMeshGenerator.hpp'
p177
sg44
I00
sba(iwrapper_utilities.class_data
CppClass
p178
(dp179
g4
Nsg5
(dp180
g7
g8
sg9
g10
sg11
g12
sg13
g14
sg15
g16
sg17
g18
sg19
g20
sS'*'
g21
sg22
g23
sg24
g23
sg25
g26
sg27
g23
ssg28
S'GridCalculator'
p181
sg30
I00
sg31
I00
sg32
Nsg33
g158
sg35
I01
sg36
I01
sg37
I00
sg38
Nsg39
g106
sg40
Nsg41
Nsg42
I00
sg43
S'/home/grogan/Chaste/projects/MicrovesselChaste/src/mesh/GridCalculator.hpp'
p182
sg44
I00
sba(iwrapper_utilities.class_data
CppClass
p183
(dp184
g4
Nsg5
(dp185
g7
g8
sg9
g10
sg11
g12
sg13
g14
sg15
g16
sg17
g18
sg19
g20
sS'*'
g21
sg22
g23
sg24
g23
sg25
g26
sg27
g23
ssg28
S'MeshReader'
p186
sg30
I00
sg31
I00
sg32
Nsg33
g158
sg35
I01
sg36
I01
sg37
I00
sg38
Nsg39
Nsg40
Nsg41
Nsg42
I00
sg43
S'/home/grogan/Chaste/projects/MicrovesselChaste/src/mesh/MeshReader.hpp'
p187
sg44
I00
sba(iwrapper_utilities.class_data
CppClass
p188
(dp189
g4
Nsg5
(dp190
g7
g8
sg9
g10
sg11
g12
sg13
g14
sg15
g16
sg17
g18
sg19
g20
sS'*'
g21
sg22
g23
sg24
g23
sg25
g26
sg27
g23
ssg28
S'MultiFormatMeshWriter'
p191
sg30
I00
sg31
I00
sg32
Nsg33
g158
sg35
I01
sg36
I01
sg37
I00
sg38
Nsg39
g106
sg40
Nsg41
Nsg42
I00
sg43
S'/home/grogan/Chaste/projects/MicrovesselChaste/src/mesh/MultiFormatMeshWriter.hpp'
p192
sg44
I00
sba(iwrapper_utilities.class_data
CppClass
p193
(dp194
g4
Nsg5
(dp195
g7
g8
sg9
g10
sg11
g12
sg13
g14
sg15
g16
sg17
g18
sg19
g20
sS'*'
g21
sg22
g23
sg24
g23
sg25
g26
sg27
g23
ssg28
S'RegularGrid'
p196
sg30
I00
sg31
I00
sg32
Nsg33
g158
sg35
I01
sg36
I01
sg37
I00
sg38
Nsg39
g106
sg40
Nsg41
Nsg42
I00
sg43
S'/home/grogan/Chaste/projects/MicrovesselChaste/src/mesh/RegularGrid.hpp'
p197
sg44
I00
sba(iwrapper_utilities.class_data
CppClass
p198
(dp199
g4
Nsg5
(dp200
g7
g8
sg9
g10
sg11
g12
sg13
g14
sg15
g16
sg17
g18
sg19
g20
sS'*'
g21
sg22
g23
sg24
g23
sg25
g26
sg27
g23
ssg28
S'RegularGridWriter'
p201
sg30
I00
sg31
I00
sg32
Nsg33
g158
sg35
I01
sg36
I01
sg37
I00
sg38
Nsg39
Nsg40
Nsg41
Nsg42
I00
sg43
S'/home/grogan/Chaste/projects/MicrovesselChaste/src/mesh/RegularGridWriter.hpp'
p202
sg44
I00
sba(iwrapper_utilities.class_data
CppClass
p203
(dp204
g4
Nsg5
(dp205
g7
g8
sg9
g10
sg11
g12
sg13
g14
sg15
g16
sg17
g18
sg19
g20
sS'*'
g21
sg22
g23
sg24
g23
sg25
g26
sg27
g23
ssg28
S'MeshFormat'
p206
sg30
I00
sg31
I00
sg32
Nsg33
Nsg35
I00
sg36
I01
sg37
I00
sg38
Nsg39
Nsg40
Nsg41
Nsg42
I00
sg43
Nsg44
I00
sba(iwrapper_utilities.class_data
CppClass
p207
(dp208
g4
Nsg5
(dp209
g7
g8
sg9
g10
sg11
g12
sg13
g14
sg15
g16
sg17
g18
sg19
g20
sS'*'
g21
sg22
g23
sg24
g23
sg25
g26
sg27
g23
ssg28
g71
sg30
I00
sg31
I00
sg32
Nsg33
Nsg35
I00
sg36
I00
sg37
I01
sg38
Nsg39
(lp210
(lp211
S'std::vector<boost::shared_ptr<VesselNode<2> > >'
p212
aa(lp213
S'std::vector<boost::shared_ptr<VesselNode<3> > >'
p214
aa(lp215
S'std::vector<boost::shared_ptr<VesselSegment<2> > >'
p216
aa(lp217
S'std::vector<boost::shared_ptr<VesselSegment<3> > >'
p218
aa(lp219
S'std::vector<boost::shared_ptr<Cell> >'
p220
aa(lp221
S'DimensionalChastePoint2'
p222
aa(lp223
S'DimensionalChastePoint3'
p224
aasg40
Nsg41
Nsg42
I00
sg43
Nsg44
I00
sba(iwrapper_utilities.class_data
CppClass
p225
(dp226
g4
Nsg5
(dp227
g7
g8
sg9
g10
sg11
g12
sg13
g14
sg15
g16
sg17
g18
sg19
g20
sS'*'
g21
sg22
g23
sg24
g23
sg25
g26
sg27
g23
ssg28
g62
sg30
I00
sg31
I00
sg32
Nsg33
Nsg35
I00
sg36
I00
sg37
I01
sg38
Nsg39
(lp228
(lp229
S'DimensionalChastePoint2, DimensionalChastePoint2'
p230
aa(lp231
S'DimensionalChastePoint3, DimensionalChastePoint3'
p232
aasg40
Nsg41
Nsg42
I00
sg43
Nsg44
I00
sba(iwrapper_utilities.class_data
CppClass
p233
(dp234
g4
Nsg5
(dp235
g7
g8
sg9
g10
sg11
g12
sg13
g14
sg15
g16
sg17
g18
sg19
g20
sS'*'
g21
sg22
g23
sg24
g23
sg25
g26
sg27
g23
ssg28
S'AbstractCellKiller'
p236
sg30
I00
sg31
I00
sg32
Nsg33
Nsg35
I01
sg36
I01
sg37
I00
sg38
Nsg39
g106
sg40
Nsg41
Nsg42
I00
sg43
S'/home/grogan/Chaste/cell_based/src/population/killers/AbstractCellKiller.hpp'
p237
sg44
I00
sba(iwrapper_utilities.class_data
CppClass
p238
(dp239
g4
Nsg5
(dp240
g7
g8
sg9
g10
sg11
g12
sg13
g14
sg15
g16
sg17
g18
sg19
g20
sS'*'
g21
sg22
g23
sg24
g23
sg25
g26
sg27
g23
ssg28
S'AbstractCellMutationState'
p241
sg30
I00
sg31
I00
sg32
Nsg33
S'cell'
p242
sg35
I01
sg36
I01
sg37
I00
sg38
Nsg39
Nsg40
Nsg41
Nsg42
I00
sg43
S'/home/grogan/Chaste/cell_based/src/cell/properties/mutations/AbstractCellMutationState.hpp'
p243
sg44
I00
sba(iwrapper_utilities.class_data
CppClass
p244
(dp245
g4
Nsg5
(dp246
g7
g8
sg9
g10
sg11
g12
sg13
g14
sg15
g16
sg17
g18
sg19
g20
sS'*'
g21
sg22
g23
sg24
g23
sg25
g26
sg27
g23
ssg28
S'CancerCellMutationState'
p247
sg30
I00
sg31
I00
sg32
Nsg33
g242
sg35
I01
sg36
I01
sg37
I00
sg38
Nsg39
Nsg40
Nsg41
Nsg42
I00
sg43
S'/home/grogan/Chaste/projects/MicrovesselChaste/src/population/cell/properties/mutations/CancerCellMutationState.hpp'
p248
sg44
I00
sba(iwrapper_utilities.class_data
CppClass
p249
(dp250
g4
Nsg5
(dp251
g7
g8
sg9
g10
sg11
g12
sg13
g14
sg15
g16
sg17
g18
sg19
g20
sS'*'
g21
sg22
g23
sg24
g23
sg25
g26
sg27
g23
ssg28
S'QuiescentCancerCellMutationState'
p252
sg30
I00
sg31
I00
sg32
Nsg33
g242
sg35
I01
sg36
I01
sg37
I00
sg38
Nsg39
Nsg40
Nsg41
Nsg42
I00
sg43
S'/home/grogan/Chaste/projects/MicrovesselChaste/src/population/cell/properties/mutations/QuiescentCancerCellMutationState.hpp'
p253
sg44
I00
sba(iwrapper_utilities.class_data
CppClass
p254
(dp255
g4
Nsg5
(dp256
g7
g8
sg9
g10
sg11
g12
sg13
g14
sg15
g16
sg17
g18
sg19
g20
sS'*'
g21
sg22
g23
sg24
g23
sg25
g26
sg27
g23
ssg28
S'StalkCellMutationState'
p257
sg30
I00
sg31
I00
sg32
Nsg33
g242
sg35
I01
sg36
I01
sg37
I00
sg38
Nsg39
Nsg40
Nsg41
Nsg42
I00
sg43
S'/home/grogan/Chaste/projects/MicrovesselChaste/src/population/cell/properties/mutations/StalkCellMutationState.hpp'
p258
sg44
I00
sba(iwrapper_utilities.class_data
CppClass
p259
(dp260
g4
Nsg5
(dp261
g7
g8
sg9
g10
sg11
g12
sg13
g14
sg15
g16
sg17
g18
sg19
g20
sS'*'
g21
sg22
g23
sg24
g23
sg25
g26
sg27
g23
ssg28
S'TipCellMutationState'
p262
sg30
I00
sg31
I00
sg32
Nsg33
g242
sg35
I01
sg36
I01
sg37
I00
sg38
Nsg39
Nsg40
Nsg41
Nsg42
I00
sg43
S'/home/grogan/Chaste/projects/MicrovesselChaste/src/population/cell/properties/mutations/TipCellMutationState.hpp'
p263
sg44
I00
sba(iwrapper_utilities.class_data
CppClass
p264
(dp265
g4
Nsg5
(dp266
g7
g8
sg9
g10
sg11
g12
sg13
g14
sg15
g16
sg17
g18
sg19
g20
sS'*'
g21
sg22
g23
sg24
g23
sg25
g26
sg27
g23
ssg28
S'VesselCellMutationState'
p267
sg30
I00
sg31
I00
sg32
Nsg33
g242
sg35
I01
sg36
I01
sg37
I00
sg38
Nsg39
Nsg40
Nsg41
Nsg42
I00
sg43
S'/home/grogan/Chaste/projects/MicrovesselChaste/src/population/cell/properties/mutations/VesselCellMutationState.hpp'
p268
sg44
I00
sba(iwrapper_utilities.class_data
CppClass
p269
(dp270
g4
Nsg5
(dp271
g7
g8
sg9
g10
sg11
g12
sg13
g14
sg15
g16
sg17
g18
sg19
g20
sS'*'
g21
sg22
g23
sg24
g23
sg25
g26
sg27
g23
ssg28
S'MacrophageMutationState'
p272
sg30
I00
sg31
I00
sg32
Nsg33
g242
sg35
I01
sg36
I01
sg37
I00
sg38
Nsg39
Nsg40
Nsg41
Nsg42
I00
sg43
S'/home/grogan/Chaste/projects/MicrovesselChaste/src/population/cell/properties/mutations/MacrophageMutationState.hpp'
p273
sg44
I00
sba(iwrapper_utilities.class_data
CppClass
p274
(dp275
g4
Nsg5
(dp276
g7
g8
sg9
g10
sg11
g12
sg13
g14
sg15
g16
sg17
g18
sg19
g20
sS'*'
g21
sg22
g23
sg24
g23
sg25
g26
sg27
g23
ssg28
S'Owen2011OxygenBasedCellCycleModel'
p277
sg30
I00
sg31
I00
sg32
Nsg33
g242
sg35
I01
sg36
I01
sg37
I00
sg38
Nsg39
Nsg40
Nsg41
Nsg42
I00
sg43
S'/home/grogan/Chaste/projects/MicrovesselChaste/src/population/cell/cycle/Owen2011OxygenBasedCellCycleModel.hpp'
p278
sg44
I00
sba(iwrapper_utilities.class_data
CppClass
p279
(dp280
g4
Nsg5
(dp281
g7
g8
sg9
g10
sg11
g12
sg13
g14
sg15
g16
sg17
g18
sg19
g20
sS'*'
g21
sg22
g23
sg24
g23
sg25
g26
sg27
g23
ssg28
S'Owen11CellPopulationGenerator'
p282
sg30
I00
sg31
I00
sg32
Nsg33
g242
sg35
I01
sg36
I01
sg37
I00
sg38
Nsg39
g106
sg40
Nsg41
Nsg42
I00
sg43
S'/home/grogan/Chaste/projects/MicrovesselChaste/src/population/cell/Owen11CellPopulationGenerator.hpp'
p283
sg44
I00
sba(iwrapper_utilities.class_data
CppClass
p284
(dp285
g4
Nsg5
(dp286
g7
g8
sg9
g10
sg11
g12
sg13
g14
sg15
g16
sg17
g18
sg19
g20
sS'*'
g21
sg22
g23
sg24
g23
sg25
g26
sg27
g23
ssg28
S'CaBasedCellPopulation'
p287
sg30
I00
sg31
I00
sg32
Nsg33
Nsg35
I01
sg36
I01
sg37
I00
sg38
Nsg39
g106
sg40
Nsg41
Nsg42
I00
sg43
S'/home/grogan/Chaste/cell_based/src/population/CaBasedCellPopulation.hpp'
p288
sg44
I00
sba(iwrapper_utilities.class_data
CppClass
p289
(dp290
g4
Nsg5
(dp291
g7
g8
sg9
g10
sg11
g12
sg13
g14
sg15
g16
sg17
g18
sg19
g20
sS'*'
g21
sg22
g23
sg24
g23
sg25
g26
sg27
g23
ssg28
S'LQRadiotherapyCellKiller'
p292
sg30
I00
sg31
I00
sg32
Nsg33
g242
sg35
I01
sg36
I01
sg37
I00
sg38
Nsg39
g106
sg40
Nsg41
Nsg42
I00
sg43
S'/home/grogan/Chaste/projects/MicrovesselChaste/src/population/cell/killers/LQRadiotherapyCellKiller.hpp'
p293
sg44
I00
sba(iwrapper_utilities.class_data
CppClass
p294
(dp295
g4
Nsg5
(dp296
g7
g8
sg9
g10
sg11
g12
sg13
g14
sg15
g16
sg17
g18
sg19
g20
sS'*'
g21
sg22
g23
sg24
g23
sg25
g26
sg27
g23
ssg28
S'Owen11CaBasedDivisionRule'
p297
sg30
I00
sg31
I00
sg32
Nsg33
g242
sg35
I01
sg36
I01
sg37
I00
sg38
Nsg39
g106
sg40
Nsg41
Nsg42
I00
sg43
S'/home/grogan/Chaste/projects/MicrovesselChaste/src/population/cell/Owen11CaBasedDivisionRule.hpp'
p298
sg44
I00
sba(iwrapper_utilities.class_data
CppClass
p299
(dp300
g4
Nsg5
(dp301
g7
g8
sg9
g10
sg11
g12
sg13
g14
sg15
g16
sg17
g18
sg19
g20
sS'*'
g21
sg22
g23
sg24
g23
sg25
g26
sg27
g23
ssg28
S'Owen11CaUpdateRule'
p302
sg30
I00
sg31
I00
sg32
Nsg33
g242
sg35
I01
sg36
I01
sg37
I00
sg38
Nsg39
g106
sg40
Nsg41
Nsg42
I00
sg43
S'/home/grogan/Chaste/projects/MicrovesselChaste/src/population/cell/Owen11CaUpdateRule.hpp'
p303
sg44
I00
sba(iwrapper_utilities.class_data
CppClass
p304
(dp305
g4
Nsg5
(dp306
g7
g8
sg9
g10
sg11
g12
sg13
g14
sg15
g16
sg17
g18
sg19
g20
sS'*'
g21
sg22
g23
sg24
g23
sg25
g26
sg27
g23
ssg28
S'TipAttractionLatticeBasedMigrationRule'
p307
sg30
I00
sg31
I00
sg32
Nsg33
S'angiogenesis'
p308
sg35
I01
sg36
I01
sg37
I00
sg38
Nsg39
g106
sg40
Nsg41
Nsg42
I00
sg43
S'/home/grogan/Chaste/projects/MicrovesselChaste/src/simulation/angiogenesis/migration_rules/lattice/TipAttractionLatticeBasedMigrationRule.hpp'
p309
sg44
I00
sba(iwrapper_utilities.class_data
CppClass
p310
(dp311
g4
Nsg5
(dp312
g7
g8
sg9
g10
sg11
g12
sg13
g14
sg15
g16
sg17
g18
sg19
g20
sS'*'
g21
sg22
g23
sg24
g23
sg25
g26
sg27
g23
ssg28
S'AngiogenesisSolver'
p313
sg30
I00
sg31
I00
sg32
Nsg33
g308
sg35
I01
sg36
I01
sg37
I00
sg38
Nsg39
g106
sg40
Nsg41
Nsg42
I00
sg43
S'/home/grogan/Chaste/projects/MicrovesselChaste/src/simulation/angiogenesis/AngiogenesisSolver.hpp'
p314
sg44
I00
sba(iwrapper_utilities.class_data
CppClass
p315
(dp316
g4
Nsg5
(dp317
g7
g8
sg9
g10
sg11
g12
sg13
g14
sg15
g16
sg17
g18
sg19
g20
sS'*'
g21
sg22
g23
sg24
g23
sg25
g26
sg27
g23
ssg28
S'Owen2011MigrationRule'
p318
sg30
I00
sg31
I00
sg32
Nsg33
g308
sg35
I01
sg36
I01
sg37
I00
sg38
Nsg39
g106
sg40
Nsg41
Nsg42
I00
sg43
S'/home/grogan/Chaste/projects/MicrovesselChaste/src/simulation/angiogenesis/migration_rules/lattice/Owen2011MigrationRule.hpp'
p319
sg44
I00
sba(iwrapper_utilities.class_data
CppClass
p320
(dp321
g4
Nsg5
(dp322
g7
g8
sg9
g10
sg11
g12
sg13
g14
sg15
g16
sg17
g18
sg19
g20
sS'*'
g21
sg22
g23
sg24
g23
sg25
g26
sg27
g23
ssg28
S'Owen2011SproutingRule'
p323
sg30
I00
sg31
I00
sg32
Nsg33
g308
sg35
I01
sg36
I01
sg37
I00
sg38
Nsg39
g106
sg40
Nsg41
Nsg42
I00
sg43
S'/home/grogan/Chaste/projects/MicrovesselChaste/src/simulation/angiogenesis/sprouting_rules/Owen2011SproutingRule.hpp'
p324
sg44
I00
sba(iwrapper_utilities.class_data
CppClass
p325
(dp326
g4
Nsg5
(dp327
g7
g8
sg9
g10
sg11
g12
sg13
g14
sg15
g16
sg17
g18
sg19
g20
sS'*'
g21
sg22
g23
sg24
g23
sg25
g26
sg27
g23
ssg28
S'OffLatticeMigrationRule'
p328
sg30
I00
sg31
I00
sg32
Nsg33
g308
sg35
I01
sg36
I01
sg37
I00
sg38
Nsg39
g106
sg40
Nsg41
Nsg42
I00
sg43
S'/home/grogan/Chaste/projects/MicrovesselChaste/src/simulation/angiogenesis/migration_rules/off_lattice/OffLatticeMigrationRule.hpp'
p329
sg44
I00
sba(iwrapper_utilities.class_data
CppClass
p330
(dp331
g4
Nsg5
(dp332
g7
g8
sg9
g10
sg11
g12
sg13
g14
sg15
g16
sg17
g18
sg19
g20
sS'*'
g21
sg22
g23
sg24
g23
sg25
g26
sg27
g23
ssg28
S'OffLatticeSproutingRule'
p333
sg30
I00
sg31
I00
sg32
Nsg33
g308
sg35
I01
sg36
I01
sg37
I00
sg38
Nsg39
g106
sg40
Nsg41
Nsg42
I00
sg43
S'/home/grogan/Chaste/projects/MicrovesselChaste/src/simulation/angiogenesis/sprouting_rules/OffLatticeSproutingRule.hpp'
p334
sg44
I00
sba(iwrapper_utilities.class_data
CppClass
p335
(dp336
g4
Nsg5
(dp337
g7
g8
sg9
g10
sg11
g12
sg13
g14
sg15
g16
sg17
g18
sg19
g20
sS'*'
g21
sg22
g23
sg24
g23
sg25
g26
sg27
g23
ssg28
S'AbstractMigrationRule'
p338
sg30
I00
sg31
I00
sg32
Nsg33
g308
sg35
I01
sg36
I01
sg37
I00
sg38
Nsg39
g106
sg40
Nsg41
Nsg42
I00
sg43
S'/home/grogan/Chaste/projects/MicrovesselChaste/src/simulation/angiogenesis/migration_rules/AbstractMigrationRule.hpp'
p339
sg44
I00
sba(iwrapper_utilities.class_data
CppClass
p340
(dp341
g4
Nsg5
(dp342
g7
g8
sg9
g10
sg11
g12
sg13
g14
sg15
g16
sg17
g18
sg19
g20
sS'*'
g21
sg22
g23
sg24
g23
sg25
g26
sg27
g23
ssg28
S'AbstractSproutingRule'
p343
sg30
I00
sg31
I00
sg32
Nsg33
g308
sg35
I01
sg36
I01
sg37
I00
sg38
Nsg39
g106
sg40
Nsg41
Nsg42
I00
sg43
S'/home/grogan/Chaste/projects/MicrovesselChaste/src/simulation/angiogenesis/sprouting_rules/AbstractSproutingRule.hpp'
p344
sg44
I00
sba(iwrapper_utilities.class_data
CppClass
p345
(dp346
g4
Nsg5
(dp347
g7
g8
sg9
g10
sg11
g12
sg13
g14
sg15
g16
sg17
g18
sg19
g20
sS'*'
g21
sg22
g23
sg24
g23
sg25
g26
sg27
g23
ssg28
S'LatticeBasedMigrationRule'
p348
sg30
I00
sg31
I00
sg32
Nsg33
g308
sg35
I01
sg36
I01
sg37
I00
sg38
Nsg39
g106
sg40
Nsg41
Nsg42
I00
sg43
S'/home/grogan/Chaste/projects/MicrovesselChaste/src/simulation/angiogenesis/migration_rules/lattice/LatticeBasedMigrationRule.hpp'
p349
sg44
I00
sba(iwrapper_utilities.class_data
CppClass
p350
(dp351
g4
Nsg5
(dp352
g7
g8
sg9
g10
sg11
g12
sg13
g14
sg15
g16
sg17
g18
sg19
g20
sS'*'
g21
sg22
g23
sg24
g23
sg25
g26
sg27
g23
ssg28
S'CellPopulationMigrationRule'
p353
sg30
I00
sg31
I00
sg32
Nsg33
g308
sg35
I01
sg36
I01
sg37
I00
sg38
Nsg39
g106
sg40
Nsg41
Nsg42
I00
sg43
S'/home/grogan/Chaste/projects/MicrovesselChaste/src/simulation/angiogenesis/migration_rules/lattice/CellPopulationMigrationRule.hpp'
p354
sg44
I00
sba(iwrapper_utilities.class_data
CppClass
p355
(dp356
g4
Nsg5
(dp357
g7
g8
sg9
g10
sg11
g12
sg13
g14
sg15
g16
sg17
g18
sg19
g20
sS'*'
g21
sg22
g23
sg24
g23
sg25
g26
sg27
g23
ssg28
S'RegressionSolver'
p358
sg30
I00
sg31
I00
sg32
Nsg33
g308
sg35
I01
sg36
I01
sg37
I00
sg38
Nsg39
g106
sg40
Nsg41
Nsg42
I00
sg43
S'/home/grogan/Chaste/projects/MicrovesselChaste/src/simulation/angiogenesis/regression/RegressionSolver.hpp'
p359
sg44
I00
sba(iwrapper_utilities.class_data
CppClass
p360
(dp361
g4
Nsg5
(dp362
g7
g8
sg9
g10
sg11
g12
sg13
g14
sg15
g16
sg17
g18
sg19
g20
sS'*'
g21
sg22
g23
sg24
g23
sg25
g26
sg27
g23
ssg28
S'WallShearStressBasedRegressionSolver'
p363
sg30
I00
sg31
I00
sg32
Nsg33
g308
sg35
I01
sg36
I01
sg37
I00
sg38
Nsg39
g106
sg40
Nsg41
Nsg42
I00
sg43
S'/home/grogan/Chaste/projects/MicrovesselChaste/src/simulation/angiogenesis/regression/WallShearStressBasedRegressionSolver.hpp'
p364
sg44
I00
sba(iwrapper_utilities.class_data
CppClass
p365
(dp366
g4
Nsg5
(dp367
g7
g8
sg9
g10
sg11
g12
sg13
g14
sg15
g16
sg17
g18
sg19
g20
sS'*'
g21
sg22
g23
sg24
g23
sg25
g26
sg27
g23
ssg28
S'LatticeBasedSproutingRule'
p368
sg30
I00
sg31
I00
sg32
Nsg33
g308
sg35
I01
sg36
I01
sg37
I00
sg38
Nsg39
g106
sg40
Nsg41
Nsg42
I00
sg43
S'/home/grogan/Chaste/projects/MicrovesselChaste/src/simulation/angiogenesis/sprouting_rules/LatticeBasedSproutingRule.hpp'
p369
sg44
I00
sba(iwrapper_utilities.class_data
CppClass
p370
(dp371
g4
Nsg5
(dp372
g7
g8
sg9
g10
sg11
g12
sg13
g14
sg15
g16
sg17
g18
sg19
g20
sS'*'
g21
sg22
g23
sg24
g23
sg25
g26
sg27
g23
ssg28
S'DiscreteContinuumBoundaryCondition'
p373
sg30
I00
sg31
I00
sg32
Nsg33
S'pde'
p374
sg35
I01
sg36
I01
sg37
I00
sg38
Nsg39
g106
sg40
Nsg41
Nsg42
I00
sg43
S'/home/grogan/Chaste/projects/MicrovesselChaste/src/pde/boundary_conditions/DiscreteContinuumBoundaryCondition.hpp'
p375
sg44
I00
sba(iwrapper_utilities.class_data
CppClass
p376
(dp377
g4
Nsg5
(dp378
g7
g8
sg9
g10
sg11
g12
sg13
g14
sg15
g16
sg17
g18
sg19
g20
sS'*'
g21
sg22
g23
sg24
g23
sg25
g26
sg27
g23
ssg28
S'DiscreteSource'
p379
sg30
I00
sg31
I00
sg32
Nsg33
g374
sg35
I01
sg36
I01
sg37
I00
sg38
Nsg39
g106
sg40
Nsg41
Nsg42
I01
sg43
S'/home/grogan/Chaste/projects/MicrovesselChaste/src/pde/discrete_sources/DiscreteSource.hpp'
p380
sg44
I00
sba(iwrapper_utilities.class_data
CppClass
p381
(dp382
g4
Nsg5
(dp383
g7
g8
sg9
g10
sg11
g12
sg13
g14
sg15
g16
sg17
g18
sg19
g20
sS'*'
g21
sg22
g23
sg24
g23
sg25
g26
sg27
g23
ssg28
S'CellStateDependentDiscreteSource'
p384
sg30
I00
sg31
I00
sg32
Nsg33
g374
sg35
I01
sg36
I01
sg37
I00
sg38
Nsg39
g106
sg40
Nsg41
Nsg42
I00
sg43
S'/home/grogan/Chaste/projects/MicrovesselChaste/src/pde/discrete_sources/CellStateDependentDiscreteSource.hpp'
p385
sg44
I00
sba(iwrapper_utilities.class_data
CppClass
p386
(dp387
g4
Nsg5
(dp388
g7
g8
sg9
g10
sg11
g12
sg13
g14
sg15
g16
sg17
g18
sg19
g20
sS'*'
g21
sg22
g23
sg24
g23
sg25
g26
sg27
g23
ssg28
S'CellBasedDiscreteSource'
p389
sg30
I00
sg31
I00
sg32
Nsg33
g374
sg35
I01
sg36
I01
sg37
I00
sg38
Nsg39
g106
sg40
Nsg41
Nsg42
I00
sg43
S'/home/grogan/Chaste/projects/MicrovesselChaste/src/pde/discrete_sources/CellBasedDiscreteSource.hpp'
p390
sg44
I00
sba(iwrapper_utilities.class_data
CppClass
p391
(dp392
g4
Nsg5
(dp393
g7
g8
sg9
g10
sg11
g12
sg13
g14
sg15
g16
sg17
g18
sg19
g20
sS'*'
g21
sg22
g23
sg24
g23
sg25
g26
sg27
g23
ssg28
S'SolutionDependentDiscreteSource'
p394
sg30
I00
sg31
I00
sg32
Nsg33
g374
sg35
I01
sg36
I01
sg37
I00
sg38
Nsg39
g106
sg40
Nsg41
Nsg42
I00
sg43
S'/home/grogan/Chaste/projects/MicrovesselChaste/src/pde/discrete_sources/SolutionDependentDiscreteSource.hpp'
p395
sg44
I00
sba(iwrapper_utilities.class_data
CppClass
p396
(dp397
g4
Nsg5
(dp398
g7
g8
sg9
g10
sg11
g12
sg13
g14
sg15
g16
sg17
g18
sg19
g20
sS'*'
g21
sg22
g23
sg24
g23
sg25
g26
sg27
g23
ssg28
S'VesselBasedDiscreteSource'
p399
sg30
I00
sg31
I00
sg32
Nsg33
g374
sg35
I01
sg36
I01
sg37
I00
sg38
Nsg39
g106
sg40
Nsg41
Nsg42
I00
sg43
S'/home/grogan/Chaste/projects/MicrovesselChaste/src/pde/discrete_sources/VesselBasedDiscreteSource.hpp'
p400
sg44
I00
sba(iwrapper_utilities.class_data
CppClass
p401
(dp402
g4
Nsg5
(dp403
g7
g8
sg9
g10
sg11
g12
sg13
g14
sg15
g16
sg17
g18
sg19
g20
sS'*'
g21
sg22
g23
sg24
g23
sg25
g26
sg27
g23
ssg28
S'AbstractDiscreteContinuumPde'
p404
sg30
I00
sg31
I00
sg32
Nsg33
g374
sg35
I01
sg36
I01
sg37
I00
sg38
Nsg39
g159
sg40
Nsg41
Nsg42
I00
sg43
S'/home/grogan/Chaste/projects/MicrovesselChaste/src/pde/problem/AbstractDiscreteContinuumPde.hpp'
p405
sg44
I00
sba(iwrapper_utilities.class_data
CppClass
p406
(dp407
g4
Nsg5
(dp408
g7
g8
sg9
g10
sg11
g12
sg13
g14
sg15
g16
sg17
g18
sg19
g20
sS'*'
g21
sg22
g23
sg24
g23
sg25
g26
sg27
g23
ssg28
S'AbstractDiscreteContinuumLinearEllipticPde'
p409
sg30
I00
sg31
I00
sg32
Nsg33
g374
sg35
I01
sg36
I01
sg37
I00
sg38
Nsg39
g159
sg40
Nsg41
Nsg42
I00
sg43
S'/home/grogan/Chaste/projects/MicrovesselChaste/src/pde/problem/linear_elliptic/AbstractDiscreteContinuumLinearEllipticPde.hpp'
p410
sg44
I00
sba(iwrapper_utilities.class_data
CppClass
p411
(dp412
g4
Nsg5
(dp413
g7
g8
sg9
g10
sg11
g12
sg13
g14
sg15
g16
sg17
g18
sg19
g20
sS'*'
g21
sg22
g23
sg24
g23
sg25
g26
sg27
g23
ssg28
S'DiscreteContinuumLinearEllipticPde'
p414
sg30
I00
sg31
I00
sg32
Nsg33
g374
sg35
I01
sg36
I01
sg37
I00
sg38
Nsg39
g159
sg40
Nsg41
Nsg42
I00
sg43
S'/home/grogan/Chaste/projects/MicrovesselChaste/src/pde/problem/linear_elliptic/DiscreteContinuumLinearEllipticPde.hpp'
p415
sg44
I00
sba(iwrapper_utilities.class_data
CppClass
p416
(dp417
g4
Nsg5
(dp418
g7
g8
sg9
g10
sg11
g12
sg13
g14
sg15
g16
sg17
g18
sg19
g20
sS'*'
g21
sg22
g23
sg24
g23
sg25
g26
sg27
g23
ssg28
S'AbstractDiscreteContinuumNonLinearEllipticPde'
p419
sg30
I00
sg31
I00
sg32
Nsg33
g374
sg35
I01
sg36
I01
sg37
I00
sg38
Nsg39
g159
sg40
Nsg41
Nsg42
I00
sg43
S'/home/grogan/Chaste/projects/MicrovesselChaste/src/pde/problem/nonlinear_elliptic/AbstractDiscreteContinuumNonLinearEllipticPde.hpp'
p420
sg44
I00
sba(iwrapper_utilities.class_data
CppClass
p421
(dp422
g4
Nsg5
(dp423
g7
g8
sg9
g10
sg11
g12
sg13
g14
sg15
g16
sg17
g18
sg19
g20
sS'*'
g21
sg22
g23
sg24
g23
sg25
g26
sg27
g23
ssg28
S'MichaelisMentenSteadyStateDiffusionReactionPde'
p424
sg30
I00
sg31
I00
sg32
Nsg33
g374
sg35
I01
sg36
I01
sg37
I00
sg38
Nsg39
g159
sg40
Nsg41
Nsg42
I00
sg43
S'/home/grogan/Chaste/projects/MicrovesselChaste/src/pde/problem/nonlinear_elliptic/MichaelisMentenSteadyStateDiffusionReactionPde.hpp'
p425
sg44
I00
sba(iwrapper_utilities.class_data
CppClass
p426
(dp427
g4
Nsg5
(dp428
g7
g8
sg9
g10
sg11
g12
sg13
g14
sg15
g16
sg17
g18
sg19
g20
sS'*'
g21
sg22
g23
sg24
g23
sg25
g26
sg27
g23
ssg28
S'AbstractDiscreteContinuumParabolicPde'
p429
sg30
I00
sg31
I00
sg32
Nsg33
g374
sg35
I01
sg36
I01
sg37
I00
sg38
Nsg39
g159
sg40
Nsg41
Nsg42
I00
sg43
S'/home/grogan/Chaste/projects/MicrovesselChaste/src/pde/problem/parabolic/AbstractDiscreteContinuumParabolicPde.hpp'
p430
sg44
I00
sba(iwrapper_utilities.class_data
CppClass
p431
(dp432
g4
Nsg5
(dp433
g7
g8
sg9
g10
sg11
g12
sg13
g14
sg15
g16
sg17
g18
sg19
g20
sS'*'
g21
sg22
g23
sg24
g23
sg25
g26
sg27
g23
ssg28
S'ParabolicDiffusionReactionPde'
p434
sg30
I00
sg31
I00
sg32
Nsg33
g374
sg35
I01
sg36
I01
sg37
I00
sg38
Nsg39
g159
sg40
Nsg41
Nsg42
I00
sg43
S'/home/grogan/Chaste/projects/MicrovesselChaste/src/pde/problem/parabolic/ParabolicDiffusionReactionPde.hpp'
p435
sg44
I00
sba(iwrapper_utilities.class_data
CppClass
p436
(dp437
g4
Nsg5
(dp438
g7
g8
sg9
g10
sg11
g12
sg13
g14
sg15
g16
sg17
g18
sg19
g20
sS'*'
g21
sg22
g23
sg24
g23
sg25
g26
sg27
g23
ssg28
S'CoupledVegfPelletDiffusionReactionPde'
p439
sg30
I00
sg31
I00
sg32
Nsg33
g374
sg35
I01
sg36
I01
sg37
I00
sg38
Nsg39
g159
sg40
Nsg41
Nsg42
I00
sg43
S'/home/grogan/Chaste/projects/MicrovesselChaste/src/pde/problem/parabolic/CoupledVegfPelletDiffusionReactionPde.hpp'
p440
sg44
I00
sba(iwrapper_utilities.class_data
CppClass
p441
(dp442
g4
Nsg5
(dp443
g7
g8
sg9
g10
sg11
g12
sg13
g14
sg15
g16
sg17
g18
sg19
g20
sS'*'
g21
sg22
g23
sg24
g23
sg25
g26
sg27
g23
ssg28
S'AbstractDiscreteContinuumSolver'
p444
sg30
I00
sg31
I00
sg32
Nsg33
g374
sg35
I01
sg36
I01
sg37
I00
sg38
Nsg39
g106
sg40
Nsg41
Nsg42
I01
sg43
S'/home/grogan/Chaste/projects/MicrovesselChaste/src/pde/solvers/AbstractDiscreteContinuumSolver.hpp'
p445
sg44
I00
sba(iwrapper_utilities.class_data
CppClass
p446
(dp447
g4
Nsg5
(dp448
g7
g8
sg9
g10
sg11
g12
sg13
g14
sg15
g16
sg17
g18
sg19
g20
sS'*'
g21
sg22
g23
sg24
g23
sg25
g26
sg27
g23
ssg28
S'AbstractRegularGridDiscreteContinuumSolver'
p449
sg30
I00
sg31
I00
sg32
Nsg33
g374
sg35
I01
sg36
I01
sg37
I00
sg38
Nsg39
g106
sg40
Nsg41
Nsg42
I00
sg43
S'/home/grogan/Chaste/projects/MicrovesselChaste/src/pde/solvers/AbstractRegularGridDiscreteContinuumSolver.hpp'
p450
sg44
I00
sba(iwrapper_utilities.class_data
CppClass
p451
(dp452
g4
Nsg5
(dp453
g7
g8
sg9
g10
sg11
g12
sg13
g14
sg15
g16
sg17
g18
sg19
g20
sS'*'
g21
sg22
g23
sg24
g23
sg25
g26
sg27
g23
ssg28
S'AbstractUnstructuredGridDiscreteContinuumSolver'
p454
sg30
I00
sg31
I00
sg32
Nsg33
g374
sg35
I01
sg36
I01
sg37
I00
sg38
Nsg39
g106
sg40
Nsg41
Nsg42
I00
sg43
S'/home/grogan/Chaste/projects/MicrovesselChaste/src/pde/solvers/AbstractUnstructuredGridDiscreteContinuumSolver.hpp'
p455
sg44
I00
sba(iwrapper_utilities.class_data
CppClass
p456
(dp457
g4
Nsg5
(dp458
g7
g8
sg9
g10
sg11
g12
sg13
g14
sg15
g16
sg17
g18
sg19
g20
sS'*'
g21
sg22
g23
sg24
g23
sg25
g26
sg27
g23
ssg28
S'AbstractMixedGridDiscreteContinuumSolver'
p459
sg30
I00
sg31
I00
sg32
Nsg33
g374
sg35
I01
sg36
I01
sg37
I00
sg38
Nsg39
g106
sg40
Nsg41
Nsg42
I00
sg43
S'/home/grogan/Chaste/projects/MicrovesselChaste/src/pde/solvers/AbstractMixedGridDiscreteContinuumSolver.hpp'
p460
sg44
I00
sba(iwrapper_utilities.class_data
CppClass
p461
(dp462
g4
Nsg5
(dp463
g7
g8
sg9
g10
sg11
g12
sg13
g14
sg15
g16
sg17
g18
sg19
g20
sS'*'
g21
sg22
g23
sg24
g23
sg25
g26
sg27
g23
ssg28
S'AbstractFiniteDifferenceSolverBase'
p464
sg30
I00
sg31
I00
sg32
Nsg33
g374
sg35
I01
sg36
I01
sg37
I00
sg38
Nsg39
g106
sg40
Nsg41
Nsg42
I00
sg43
S'/home/grogan/Chaste/projects/MicrovesselChaste/src/pde/solvers/finite_difference/AbstractFiniteDifferenceSolverBase.hpp'
p465
sg44
I00
sba(iwrapper_utilities.class_data
CppClass
p466
(dp467
g4
Nsg5
(dp468
g7
g8
sg9
g10
sg11
g12
sg13
g14
sg15
g16
sg17
g18
sg19
g20
sS'*'
g21
sg22
g23
sg24
g23
sg25
g26
sg27
g23
ssg28
S'CoupledLumpedSystemFiniteDifferenceSolver'
p469
sg30
I00
sg31
I00
sg32
Nsg33
g374
sg35
I01
sg36
I01
sg37
I00
sg38
Nsg39
g106
sg40
Nsg41
Nsg42
I00
sg43
S'/home/grogan/Chaste/projects/MicrovesselChaste/src/pde/solvers/finite_difference/CoupledLumpedSystemFiniteDifferenceSolver.hpp'
p470
sg44
I00
sba(iwrapper_utilities.class_data
CppClass
p471
(dp472
g4
Nsg5
(dp473
g7
g8
sg9
g10
sg11
g12
sg13
g14
sg15
g16
sg17
g18
sg19
g20
sS'*'
g21
sg22
g23
sg24
g23
sg25
g26
sg27
g23
ssg28
S'SimpleLinearEllipticFiniteDifferenceSolver'
p474
sg30
I00
sg31
I00
sg32
Nsg33
g374
sg35
I01
sg36
I01
sg37
I00
sg38
Nsg39
g106
sg40
Nsg41
Nsg42
I00
sg43
S'/home/grogan/Chaste/projects/MicrovesselChaste/src/pde/solvers/finite_difference/SimpleLinearEllipticFiniteDifferenceSolver.hpp'
p475
sg44
I00
sba(iwrapper_utilities.class_data
CppClass
p476
(dp477
g4
Nsg5
(dp478
g7
g8
sg9
g10
sg11
g12
sg13
g14
sg15
g16
sg17
g18
sg19
g20
sS'*'
g21
sg22
g23
sg24
g23
sg25
g26
sg27
g23
ssg28
S'SimpleNonLinearEllipticFiniteDifferenceSolver'
p479
sg30
I00
sg31
I00
sg32
Nsg33
g374
sg35
I01
sg36
I01
sg37
I00
sg38
Nsg39
g106
sg40
Nsg41
Nsg42
I00
sg43
S'/home/grogan/Chaste/projects/MicrovesselChaste/src/pde/solvers/finite_difference/SimpleNonLinearEllipticFiniteDifferenceSolver.hpp'
p480
sg44
I00
sba(iwrapper_utilities.class_data
CppClass
p481
(dp482
g4
Nsg5
(dp483
g7
g8
sg9
g10
sg11
g12
sg13
g14
sg15
g16
sg17
g18
sg19
g20
sS'*'
g21
sg22
g23
sg24
g23
sg25
g26
sg27
g23
ssg28
S'AbstractFiniteElementSolverBase'
p484
sg30
I00
sg31
I00
sg32
Nsg33
g374
sg35
I01
sg36
I01
sg37
I00
sg38
Nsg39
g106
sg40
Nsg41
Nsg42
I00
sg43
S'/home/grogan/Chaste/projects/MicrovesselChaste/src/pde/solvers/finite_element/AbstractFiniteElementSolverBase.hpp'
p485
sg44
I00
sba(iwrapper_utilities.class_data
CppClass
p486
(dp487
g4
Nsg5
(dp488
g7
g8
sg9
g10
sg11
g12
sg13
g14
sg15
g16
sg17
g18
sg19
g20
sS'*'
g21
sg22
g23
sg24
g23
sg25
g26
sg27
g23
ssg28
S'CoupledLumpedSystemFiniteElementSolver'
p489
sg30
I00
sg31
I00
sg32
Nsg33
g374
sg35
I01
sg36
I01
sg37
I00
sg38
Nsg39
g106
sg40
Nsg41
Nsg42
I00
sg43
S'/home/grogan/Chaste/projects/MicrovesselChaste/src/pde/solvers/finite_element/CoupledLumpedSystemFiniteElementSolver.hpp'
p490
sg44
I00
sba(iwrapper_utilities.class_data
CppClass
p491
(dp492
g4
Nsg5
(dp493
g7
g8
sg9
g10
sg11
g12
sg13
g14
sg15
g16
sg17
g18
sg19
g20
sS'*'
g21
sg22
g23
sg24
g23
sg25
g26
sg27
g23
ssg28
S'SimpleLinearEllipticFiniteElementSolver'
p494
sg30
I00
sg31
I00
sg32
Nsg33
g374
sg35
I01
sg36
I01
sg37
I00
sg38
Nsg39
g106
sg40
Nsg41
Nsg42
I00
sg43
S'/home/grogan/Chaste/projects/MicrovesselChaste/src/pde/solvers/finite_element/SimpleLinearEllipticFiniteElementSolver.hpp'
p495
sg44
I00
sba(iwrapper_utilities.class_data
CppClass
p496
(dp497
g4
Nsg5
(dp498
g7
g8
sg9
g10
sg11
g12
sg13
g14
sg15
g16
sg17
g18
sg19
g20
sS'*'
g21
sg22
g23
sg24
g23
sg25
g26
sg27
g23
ssg28
S'SimpleNonLinearEllipticFiniteElementSolver'
p499
sg30
I00
sg31
I00
sg32
Nsg33
g374
sg35
I01
sg36
I01
sg37
I00
sg38
Nsg39
g106
sg40
Nsg41
Nsg42
I00
sg43
S'/home/grogan/Chaste/projects/MicrovesselChaste/src/pde/solvers/finite_element/SimpleNonLinearEllipticFiniteElementSolver.hpp'
p500
sg44
I00
sba(iwrapper_utilities.class_data
CppClass
p501
(dp502
g4
Nsg5
(dp503
g7
g8
sg9
g10
sg11
g12
sg13
g14
sg15
g16
sg17
g18
sg19
g20
sS'*'
g21
sg22
g23
sg24
g23
sg25
g26
sg27
g23
ssg28
S'SimpleParabolicFiniteElementSolver'
p504
sg30
I00
sg31
I00
sg32
Nsg33
g374
sg35
I01
sg36
I01
sg37
I00
sg38
Nsg39
g106
sg40
Nsg41
Nsg42
I00
sg43
S'/home/grogan/Chaste/projects/MicrovesselChaste/src/pde/solvers/finite_element/SimpleParabolicFiniteElementSolver.hpp'
p505
sg44
I00
sba(iwrapper_utilities.class_data
CppClass
p506
(dp507
g4
Nsg5
(dp508
g7
g8
sg9
g10
sg11
g12
sg13
g14
sg15
g16
sg17
g18
sg19
g20
sS'*'
g21
sg22
g23
sg24
g23
sg25
g26
sg27
g23
ssg28
S'SimpleParabolicFiniteDifferenceSolver'
p509
sg30
I00
sg31
I00
sg32
Nsg33
g374
sg35
I01
sg36
I01
sg37
I00
sg38
Nsg39
g106
sg40
Nsg41
Nsg42
I00
sg43
S'/home/grogan/Chaste/projects/MicrovesselChaste/src/pde/solvers/finite_difference/SimpleParabolicFiniteDifferenceSolver.hpp'
p510
sg44
I00
sba(iwrapper_utilities.class_data
CppClass
p511
(dp512
g4
Nsg5
(dp513
g7
g8
sg9
g10
sg11
g12
sg13
g14
sg15
g16
sg17
g18
sg19
g20
sS'*'
g21
sg22
g23
sg24
g23
sg25
g26
sg27
g23
ssg28
S'FunctionMap'
p514
sg30
I00
sg31
I00
sg32
Nsg33
g374
sg35
I01
sg36
I01
sg37
I00
sg38
Nsg39
g106
sg40
Nsg41
Nsg42
I00
sg43
S'/home/grogan/Chaste/projects/MicrovesselChaste/src/pde/solvers/FunctionMap.hpp'
p515
sg44
I00
sba(iwrapper_utilities.class_data
CppClass
p516
(dp517
g4
Nsg5
(dp518
g7
g8
sg9
g10
sg11
g12
sg13
g14
sg15
g16
sg17
g18
sg19
g20
sS'*'
g21
sg22
g23
sg24
g23
sg25
g26
sg27
g23
ssg28
S'DensityMap'
p519
sg30
I00
sg31
I00
sg32
Nsg33
g374
sg35
I01
sg36
I01
sg37
I00
sg38
Nsg39
g106
sg40
Nsg41
Nsg42
I00
sg43
S'/home/grogan/Chaste/projects/MicrovesselChaste/src/pde/solvers/DensityMap.hpp'
p520
sg44
I00
sba(iwrapper_utilities.class_data
CppClass
p521
(dp522
g4
Nsg5
(dp523
g7
g8
sg9
g10
sg11
g12
sg13
g14
sg15
g16
sg17
g18
sg19
g20
sS'*'
g21
sg22
g23
sg24
g23
sg25
g26
sg27
g23
ssg28
S'FlowSolver'
p524
sg30
I00
sg31
I00
sg32
Nsg33
S'flow'
p525
sg35
I01
sg36
I01
sg37
I00
sg38
Nsg39
g106
sg40
Nsg41
Nsg42
I00
sg43
S'/home/grogan/Chaste/projects/MicrovesselChaste/src/simulation/flow/FlowSolver.hpp'
p526
sg44
I00
sba(iwrapper_utilities.class_data
CppClass
p527
(dp528
g4
Nsg5
(dp529
g7
g8
sg9
g10
sg11
g12
sg13
g14
sg15
g16
sg17
g18
sg19
g20
sS'*'
g21
sg22
g23
sg24
g23
sg25
g26
sg27
g23
ssg28
S'WallShearStressCalculator'
p530
sg30
I00
sg31
I00
sg32
Nsg33
Nsg35
I01
sg36
I01
sg37
I00
sg38
Nsg39
Nsg40
Nsg41
Nsg42
I00
sg43
Nsg44
I00
sba(iwrapper_utilities.class_data
CppClass
p531
(dp532
g4
Nsg5
(dp533
g7
g8
sg9
g10
sg11
g12
sg13
g14
sg15
g16
sg17
g18
sg19
g20
sS'*'
g21
sg22
g23
sg24
g23
sg25
g26
sg27
g23
ssg28
S'VesselImpedanceCalculator'
p534
sg30
I00
sg31
I00
sg32
Nsg33
g525
sg35
I01
sg36
I01
sg37
I00
sg38
Nsg39
g106
sg40
Nsg41
Nsg42
I00
sg43
S'/home/grogan/Chaste/projects/MicrovesselChaste/src/simulation/flow/calculators/VesselImpedanceCalculator.hpp'
p535
sg44
I00
sba(iwrapper_utilities.class_data
CppClass
p536
(dp537
g4
Nsg5
(dp538
g7
g8
sg9
g10
sg11
g12
sg13
g14
sg15
g16
sg17
g18
sg19
g20
sS'*'
g21
sg22
g23
sg24
g23
sg25
g26
sg27
g23
ssg28
S'BetteridgeHaematocritSolver'
p539
sg30
I00
sg31
I00
sg32
Nsg33
g525
sg35
I01
sg36
I01
sg37
I00
sg38
Nsg39
g106
sg40
Nsg41
Nsg42
I00
sg43
S'/home/grogan/Chaste/projects/MicrovesselChaste/src/simulation/flow/calculators/haematocrit/BetteridgeHaematocritSolver.hpp'
p540
sg44
I00
sba(iwrapper_utilities.class_data
CppClass
p541
(dp542
g4
Nsg5
(dp543
g7
g8
sg9
g10
sg11
g12
sg13
g14
sg15
g16
sg17
g18
sg19
g20
sS'*'
g21
sg22
g23
sg24
g23
sg25
g26
sg27
g23
ssg28
S'AbstractVesselNetworkCalculator'
p544
sg30
I00
sg31
I00
sg32
Nsg33
g525
sg35
I01
sg36
I01
sg37
I00
sg38
Nsg39
g106
sg40
Nsg41
Nsg42
I00
sg43
S'/home/grogan/Chaste/projects/MicrovesselChaste/src/simulation/flow/calculators/AbstractVesselNetworkCalculator.hpp'
p545
sg44
I00
sba(iwrapper_utilities.class_data
CppClass
p546
(dp547
g4
Nsg5
(dp548
g7
g8
sg9
g10
sg11
g12
sg13
g14
sg15
g16
sg17
g18
sg19
g20
sS'*'
g21
sg22
g23
sg24
g23
sg25
g26
sg27
g23
ssg28
S'MechanicalStimulusCalculator'
p549
sg30
I00
sg31
I00
sg32
Nsg33
g525
sg35
I01
sg36
I01
sg37
I00
sg38
Nsg39
g106
sg40
Nsg41
Nsg42
I00
sg43
S'/home/grogan/Chaste/projects/MicrovesselChaste/src/simulation/flow/calculators/MechanicalStimulusCalculator.hpp'
p550
sg44
I00
sba(iwrapper_utilities.class_data
CppClass
p551
(dp552
g4
Nsg5
(dp553
g7
g8
sg9
g10
sg11
g12
sg13
g14
sg15
g16
sg17
g18
sg19
g20
sS'*'
g21
sg22
g23
sg24
g23
sg25
g26
sg27
g23
ssg28
S'MetabolicStimulusCalculator'
p554
sg30
I00
sg31
I00
sg32
Nsg33
g525
sg35
I01
sg36
I01
sg37
I00
sg38
Nsg39
g106
sg40
Nsg41
Nsg42
I00
sg43
S'/home/grogan/Chaste/projects/MicrovesselChaste/src/simulation/flow/calculators/MetabolicStimulusCalculator.hpp'
p555
sg44
I00
sba(iwrapper_utilities.class_data
CppClass
p556
(dp557
g4
Nsg5
(dp558
g7
g8
sg9
g10
sg11
g12
sg13
g14
sg15
g16
sg17
g18
sg19
g20
sS'*'
g21
sg22
g23
sg24
g23
sg25
g26
sg27
g23
ssg28
S'RadiusCalculator'
p559
sg30
I00
sg31
I00
sg32
Nsg33
g525
sg35
I01
sg36
I01
sg37
I00
sg38
Nsg39
g106
sg40
Nsg41
Nsg42
I00
sg43
S'/home/grogan/Chaste/projects/MicrovesselChaste/src/simulation/flow/calculators/RadiusCalculator.hpp'
p560
sg44
I00
sba(iwrapper_utilities.class_data
CppClass
p561
(dp562
g4
Nsg5
(dp563
g7
g8
sg9
g10
sg11
g12
sg13
g14
sg15
g16
sg17
g18
sg19
g20
sS'*'
g21
sg22
g23
sg24
g23
sg25
g26
sg27
g23
ssg28
S'ShrinkingStimulusCalculator'
p564
sg30
I00
sg31
I00
sg32
Nsg33
g525
sg35
I01
sg36
I01
sg37
I00
sg38
Nsg39
g106
sg40
Nsg41
Nsg42
I00
sg43
S'/home/grogan/Chaste/projects/MicrovesselChaste/src/simulation/flow/calculators/ShrinkingStimulusCalculator.hpp'
p565
sg44
I00
sba(iwrapper_utilities.class_data
CppClass
p566
(dp567
g4
Nsg5
(dp568
g7
g8
sg9
g10
sg11
g12
sg13
g14
sg15
g16
sg17
g18
sg19
g20
sS'*'
g21
sg22
g23
sg24
g23
sg25
g26
sg27
g23
ssg28
S'ViscosityCalculator'
p569
sg30
I00
sg31
I00
sg32
Nsg33
g525
sg35
I01
sg36
I01
sg37
I00
sg38
Nsg39
g106
sg40
Nsg41
Nsg42
I00
sg43
S'/home/grogan/Chaste/projects/MicrovesselChaste/src/simulation/flow/calculators/ViscosityCalculator.hpp'
p570
sg44
I00
sba(iwrapper_utilities.class_data
CppClass
p571
(dp572
g4
Nsg5
(dp573
g7
g8
sg9
g10
sg11
g12
sg13
g14
sg15
g16
sg17
g18
sg19
g20
sS'*'
g21
sg22
g23
sg24
g23
sg25
g26
sg27
g23
ssg28
g530
sg30
I00
sg31
I00
sg32
Nsg33
g525
sg35
I01
sg36
I01
sg37
I00
sg38
Nsg39
g106
sg40
Nsg41
Nsg42
I00
sg43
S'/home/grogan/Chaste/projects/MicrovesselChaste/src/simulation/flow/calculators/WallShearStressCalculator.hpp'
p574
sg44
I00
sba(iwrapper_utilities.class_data
CppClass
p575
(dp576
g4
Nsg5
(dp577
g7
g8
sg9
g10
sg11
g12
sg13
g14
sg15
g16
sg17
g18
sg19
g20
sS'*'
g21
sg22
g23
sg24
g23
sg25
g26
sg27
g23
ssg28
S'AbstractStructuralAdaptationSolver'
p578
sg30
I00
sg31
I00
sg32
Nsg33
g525
sg35
I01
sg36
I01
sg37
I00
sg38
Nsg39
g106
sg40
Nsg41
Nsg42
I00
sg43
S'/home/grogan/Chaste/projects/MicrovesselChaste/src/simulation/flow/structural_adaptation/AbstractStructuralAdaptationSolver.hpp'
p579
sg44
I00
sba(iwrapper_utilities.class_data
CppClass
p580
(dp581
g4
Nsg5
(dp582
g7
g8
sg9
g10
sg11
g12
sg13
g14
sg15
g16
sg17
g18
sg19
g20
sS'*'
g21
sg22
g23
sg24
g23
sg25
g26
sg27
g23
ssg28
S'StructuralAdaptationSolver'
p583
sg30
I00
sg31
I00
sg32
Nsg33
g525
sg35
I01
sg36
I01
sg37
I00
sg38
Nsg39
g106
sg40
Nsg41
Nsg42
I00
sg43
S'/home/grogan/Chaste/projects/MicrovesselChaste/src/simulation/flow/structural_adaptation/StructuralAdaptationSolver.hpp'
p584
sg44
I00
sba(iwrapper_utilities.class_data
CppClass
p585
(dp586
g4
Nsg5
(dp587
g7
g8
sg9
g10
sg11
g12
sg13
g14
sg15
g16
sg17
g18
sg19
g20
sS'*'
g21
sg22
g23
sg24
g23
sg25
g26
sg27
g23
ssg28
S'AbstractHaematocritSolver'
p588
sg30
I00
sg31
I00
sg32
Nsg33
g525
sg35
I01
sg36
I01
sg37
I00
sg38
Nsg39
g106
sg40
Nsg41
Nsg42
I00
sg43
S'/home/grogan/Chaste/projects/MicrovesselChaste/src/simulation/flow/calculators/haematocrit/AbstractHaematocritSolver.hpp'
p589
sg44
I00
sba(iwrapper_utilities.class_data
CppClass
p590
(dp591
g4
Nsg5
(dp592
g7
g8
sg9
g10
sg11
g12
sg13
g14
sg15
g16
sg17
g18
sg19
g20
sS'*'
g21
sg22
g23
sg24
g23
sg25
g26
sg27
g23
ssg28
S'AlarconHaematocritSolver'
p593
sg30
I00
sg31
I00
sg32
Nsg33
g525
sg35
I01
sg36
I01
sg37
I00
sg38
Nsg39
g106
sg40
Nsg41
Nsg42
I00
sg43
S'/home/grogan/Chaste/projects/MicrovesselChaste/src/simulation/flow/calculators/haematocrit/AlarconHaematocritSolver.hpp'
p594
sg44
I00
sba(iwrapper_utilities.class_data
CppClass
p595
(dp596
g4
Nsg5
(dp597
g7
g8
sg9
g10
sg11
g12
sg13
g14
sg15
g16
sg17
g18
sg19
g20
sS'*'
g21
sg22
g23
sg24
g23
sg25
g26
sg27
g23
ssg28
S'ConstantHaematocritSolver'
p598
sg30
I00
sg31
I00
sg32
Nsg33
g525
sg35
I01
sg36
I01
sg37
I00
sg38
Nsg39
g106
sg40
Nsg41
Nsg42
I00
sg43
S'/home/grogan/Chaste/projects/MicrovesselChaste/src/simulation/flow/calculators/haematocrit/ConstantHaematocritSolver.hpp'
p599
sg44
I00
sba(iwrapper_utilities.class_data
CppClass
p600
(dp601
g4
Nsg5
(dp602
g7
g8
sg9
g10
sg11
g12
sg13
g14
sg15
g16
sg17
g18
sg19
g20
sS'*'
g21
sg22
g23
sg24
g23
sg25
g26
sg27
g23
ssg28
S'MicrovesselSolver'
p603
sg30
I00
sg31
I00
sg32
Nsg33
S'simulation'
p604
sg35
I01
sg36
I01
sg37
I00
sg38
Nsg39
g106
sg40
Nsg41
Nsg42
I00
sg43
S'/home/grogan/Chaste/projects/MicrovesselChaste/src/simulation/MicrovesselSolver.hpp'
p605
sg44
I00
sba(iwrapper_utilities.class_data
CppClass
p606
(dp607
g4
Nsg5
(dp608
g7
g8
sg9
g10
sg11
g12
sg13
g14
sg15
g16
sg17
g18
sg19
g20
sS'*'
g21
sg22
g23
sg24
g23
sg25
g26
sg27
g23
ssg28
S'MicrovesselSimulationModifier'
p609
sg30
I00
sg31
I00
sg32
Nsg33
g604
sg35
I01
sg36
I01
sg37
I00
sg38
Nsg39
g106
sg40
Nsg41
Nsg42
I00
sg43
S'/home/grogan/Chaste/projects/MicrovesselChaste/src/simulation/modifiers/MicrovesselSimulationModifier.hpp'
p610
sg44
I00
sba(iwrapper_utilities.class_data
CppClass
p611
(dp612
g4
Nsg5
(dp613
g7
g8
sg9
g10
sg11
g12
sg13
g14
sg15
g16
sg17
g18
sg19
g20
sS'*'
g21
sg22
g23
sg24
g23
sg25
g26
sg27
g23
ssg28
S'AbstractMicrovesselModifier'
p614
sg30
I00
sg31
I00
sg32
Nsg33
Nsg35
I01
sg36
I01
sg37
I00
sg38
Nsg39
Nsg40
Nsg41
Nsg42
I00
sg43
Nsg44
I00
sba(iwrapper_utilities.class_data
CppClass
p615
(dp616
g4
Nsg5
(dp617
g7
g8
sg9
g10
sg11
g12
sg13
g14
sg15
g16
sg17
g18
sg19
g20
sS'*'
g21
sg22
g23
sg24
g23
sg25
g26
sg27
g23
ssg28
S'VtkSceneMicrovesselModifier'
p618
sg30
I00
sg31
I00
sg32
Nsg33
Nsg35
I01
sg36
I01
sg37
I00
sg38
Nsg39
Nsg40
Nsg41
Nsg42
I00
sg43
Nsg44
I00
sba(iwrapper_utilities.class_data
CppClass
p619
(dp620
g4
Nsg5
(dp621
g7
g8
sg9
g10
sg11
g12
sg13
g14
sg15
g16
sg17
g18
sg19
g20
sS'*'
g21
sg22
g23
sg24
g23
sg25
g26
sg27
g23
ssg28
S'Owen2011TrackingModifier'
p622
sg30
I00
sg31
I00
sg32
Nsg33
Nsg35
I01
sg36
I01
sg37
I00
sg38
Nsg39
g106
sg40
Nsg41
Nsg42
I00
sg43
S'/home/grogan/Chaste/projects/MicrovesselChaste/src/ode/Owen2011TrackingModifier.hpp'
p623
sg44
I00
sba(iwrapper_utilities.class_data
CppClass
p624
(dp625
g4
Nsg5
(dp626
g7
g8
sg9
g10
sg11
g12
sg13
g14
sg15
g16
sg17
g18
sg19
g20
sS'*'
g21
sg22
g23
sg24
g23
sg25
g26
sg27
g23
ssg28
S'AbstractCellBasedSimulationModifier'
p627
sg30
I00
sg31
I00
sg32
Nsg33
g604
sg35
I01
sg36
I01
sg37
I00
sg38
Nsg39
g159
sg40
Nsg41
Nsg42
I00
sg43
S'/home/grogan/Chaste/cell_based/src/simulation/modifiers/AbstractCellBasedSimulationModifier.hpp'
p628
sg44
I00
sba(iwrapper_utilities.class_data
CppClass
p629
(dp630
g4
Nsg5
(dp631
g7
g8
sg9
g10
sg11
g12
sg13
g14
sg15
g16
sg17
g18
sg19
g20
sS'*'
g21
sg22
g23
sg24
g23
sg25
g26
sg27
g23
ssg28
S'VesselNetworkReader'
p632
sg30
I00
sg31
I00
sg32
Nsg33
S'vessel'
p633
sg35
I01
sg36
I01
sg37
I00
sg38
Nsg39
g106
sg40
Nsg41
Nsg42
I00
sg43
S'/home/grogan/Chaste/projects/MicrovesselChaste/src/population/vessel/readers/VesselNetworkReader.hpp'
p634
sg44
I00
sba(iwrapper_utilities.class_data
CppClass
p635
(dp636
g4
Nsg5
(dp637
g7
g8
sg9
g10
sg11
g12
sg13
g14
sg15
g16
sg17
g18
sg19
g20
sS'*'
g21
sg22
g23
sg24
g23
sg25
g26
sg27
g23
ssg28
S'NodeFlowProperties'
p638
sg30
I00
sg31
I00
sg32
Nsg33
g633
sg35
I01
sg36
I01
sg37
I00
sg38
Nsg39
g106
sg40
Nsg41
Nsg42
I00
sg43
S'/home/grogan/Chaste/projects/MicrovesselChaste/src/population/vessel/properties/NodeFlowProperties.hpp'
p639
sg44
I00
sba(iwrapper_utilities.class_data
CppClass
p640
(dp641
g4
Nsg5
(dp642
g7
g8
sg9
g10
sg11
g12
sg13
g14
sg15
g16
sg17
g18
sg19
g20
sS'*'
g21
sg22
g23
sg24
g23
sg25
g26
sg27
g23
ssg28
S'SegmentFlowProperties'
p643
sg30
I00
sg31
I00
sg32
Nsg33
g633
sg35
I01
sg36
I01
sg37
I00
sg38
Nsg39
g106
sg40
Nsg41
Nsg42
I00
sg43
S'/home/grogan/Chaste/projects/MicrovesselChaste/src/population/vessel/properties/SegmentFlowProperties.hpp'
p644
sg44
I00
sba(iwrapper_utilities.class_data
CppClass
p645
(dp646
g4
Nsg5
(dp647
g7
g8
sg9
g10
sg11
g12
sg13
g14
sg15
g16
sg17
g18
sg19
g20
sS'*'
g21
sg22
g23
sg24
g23
sg25
g26
sg27
g23
ssg28
S'VesselFlowProperties'
p648
sg30
I00
sg31
I00
sg32
Nsg33
g633
sg35
I01
sg36
I01
sg37
I00
sg38
Nsg39
g106
sg40
Nsg41
Nsg42
I00
sg43
S'/home/grogan/Chaste/projects/MicrovesselChaste/src/population/vessel/properties/VesselFlowProperties.hpp'
p649
sg44
I00
sba(iwrapper_utilities.class_data
CppClass
p650
(dp651
g4
Nsg5
(dp652
g7
g8
sg9
g10
sg11
g12
sg13
g14
sg15
g16
sg17
g18
sg19
g20
sS'*'
g21
sg22
g23
sg24
g23
sg25
g26
sg27
g23
ssg28
S'VesselNode'
p653
sg30
I00
sg31
I00
sg32
Nsg33
g633
sg35
I01
sg36
I01
sg37
I00
sg38
Nsg39
g106
sg40
Nsg41
Nsg42
I01
sg43
S'/home/grogan/Chaste/projects/MicrovesselChaste/src/population/vessel/VesselNode.hpp'
p654
sg44
I00
sba(iwrapper_utilities.class_data
CppClass
p655
(dp656
g4
Nsg5
(dp657
g7
g8
sg9
g10
sg11
g12
sg13
g14
sg15
g16
sg17
g18
sg19
g20
sS'*'
g21
sg22
g23
sg24
g23
sg25
g26
sg27
g23
ssg28
S'VesselSegment'
p658
sg30
I00
sg31
I00
sg32
Nsg33
g633
sg35
I01
sg36
I01
sg37
I00
sg38
Nsg39
g106
sg40
Nsg41
Nsg42
I01
sg43
S'/home/grogan/Chaste/projects/MicrovesselChaste/src/population/vessel/VesselSegment.hpp'
p659
sg44
I00
sba(iwrapper_utilities.class_data
CppClass
p660
(dp661
g4
Nsg5
(dp662
g7
g8
sg9
g10
sg11
g12
sg13
g14
sg15
g16
sg17
g18
sg19
g20
sS'*'
g21
sg22
g23
sg24
g23
sg25
g26
sg27
g23
ssg28
S'Vessel'
p663
sg30
I00
sg31
I00
sg32
Nsg33
g633
sg35
I01
sg36
I01
sg37
I00
sg38
Nsg39
g106
sg40
Nsg41
Nsg42
I01
sg43
S'/home/grogan/Chaste/projects/MicrovesselChaste/src/population/vessel/Vessel.hpp'
p664
sg44
I00
sba(iwrapper_utilities.class_data
CppClass
p665
(dp666
g4
Nsg5
(dp667
g7
g8
sg9
g10
sg11
g12
sg13
g14
sg15
g16
sg17
g18
sg19
g20
sS'*'
g21
sg22
g23
sg24
g23
sg25
g26
sg27
g23
ssg28
S'VesselNetwork'
p668
sg30
I00
sg31
I00
sg32
Nsg33
g633
sg35
I01
sg36
I01
sg37
I00
sg38
Nsg39
g106
sg40
Nsg41
Nsg42
I00
sg43
S'/home/grogan/Chaste/projects/MicrovesselChaste/src/population/vessel/VesselNetwork.hpp'
p669
sg44
I00
sba(iwrapper_utilities.class_data
CppClass
p670
(dp671
g4
Nsg5
(dp672
g7
g8
sg9
g10
sg11
g12
sg13
g14
sg15
g16
sg17
g18
sg19
g20
sS'*'
g21
sg22
g23
sg24
g23
sg25
g26
sg27
g23
ssg28
S'VesselNetworkGenerator'
p673
sg30
I00
sg31
I00
sg32
Nsg33
g633
sg35
I01
sg36
I01
sg37
I00
sg38
Nsg39
g106
sg40
Nsg41
Nsg42
I00
sg43
S'/home/grogan/Chaste/projects/MicrovesselChaste/src/population/vessel/generators/VesselNetworkGenerator.hpp'
p674
sg44
I00
sba(iwrapper_utilities.class_data
CppClass
p675
(dp676
g4
Nsg5
(dp677
g7
g8
sg9
g10
sg11
g12
sg13
g14
sg15
g16
sg17
g18
sg19
g20
sS'*'
g21
sg22
g23
sg24
g23
sg25
g26
sg27
g23
ssg28
S'AbstractVesselNetworkComponent'
p678
sg30
I00
sg31
I00
sg32
Nsg33
g633
sg35
I01
sg36
I01
sg37
I00
sg38
Nsg39
g106
sg40
Nsg41
Nsg42
I00
sg43
S'/home/grogan/Chaste/projects/MicrovesselChaste/src/population/vessel/AbstractVesselNetworkComponent.hpp'
p679
sg44
I00
sba(iwrapper_utilities.class_data
CppClass
p680
(dp681
g4
Nsg5
(dp682
g7
g8
sg9
g10
sg11
g12
sg13
g14
sg15
g16
sg17
g18
sg19
g20
sS'*'
g21
sg22
g23
sg24
g23
sg25
g26
sg27
g23
ssg28
S'VesselNetworkCellPopulationInteractor'
p683
sg30
I00
sg31
I00
sg32
Nsg33
Nsg35
I01
sg36
I01
sg37
I00
sg38
Nsg39
g106
sg40
Nsg41
Nsg42
I00
sg43
S'/home/grogan/Chaste/projects/MicrovesselChaste/src/population/VesselNetworkCellPopulationInteractor.hpp'
p684
sg44
I00
sba(iwrapper_utilities.class_data
CppClass
p685
(dp686
g4
Nsg5
(dp687
g7
g8
sg9
g10
sg11
g12
sg13
g14
sg15
g16
sg17
g18
sg19
g20
sS'*'
g21
sg22
g23
sg24
g23
sg25
g26
sg27
g23
ssg28
S'VesselNetworkWriter'
p688
sg30
I00
sg31
I00
sg32
Nsg33
g633
sg35
I01
sg36
I01
sg37
I00
sg38
Nsg39
g106
sg40
Nsg41
Nsg42
I00
sg43
S'/home/grogan/Chaste/projects/MicrovesselChaste/src/population/vessel/writers/VesselNetworkWriter.hpp'
p689
sg44
I00
sba(iwrapper_utilities.class_data
CppClass
p690
(dp691
g4
Nsg5
(dp692
g7
g8
sg9
g10
sg11
g12
sg13
g14
sg15
g16
sg17
g18
sg19
g20
sS'*'
g21
sg22
g23
sg24
g23
sg25
g26
sg27
g23
ssg28
S'DistanceMap'
p693
sg30
I00
sg31
I00
sg32
Nsg33
g633
sg35
I01
sg36
I01
sg37
I00
sg38
Nsg39
g106
sg40
Nsg41
Nsg42
I00
sg43
S'/home/grogan/Chaste/projects/MicrovesselChaste/src/population/vessel/calculators/DistanceMap.hpp'
p694
sg44
I00
sba(iwrapper_utilities.class_data
CppClass
p695
(dp696
g4
Nsg5
(dp697
g7
g8
sg9
g10
sg11
g12
sg13
g14
sg15
g16
sg17
g18
sg19
g20
sS'*'
g21
sg22
g23
sg24
g23
sg25
g26
sg27
g23
ssg28
S'VesselNetworkGeometryCalculator'
p698
sg30
I00
sg31
I00
sg32
Nsg33
g633
sg35
I01
sg36
I01
sg37
I00
sg38
Nsg39
g106
sg40
Nsg41
Nsg42
I00
sg43
S'/home/grogan/Chaste/projects/MicrovesselChaste/src/population/vessel/calculators/VesselNetworkGeometryCalculator.hpp'
p699
sg44
I00
sba(iwrapper_utilities.class_data
CppClass
p700
(dp701
g4
Nsg5
(dp702
g7
g8
sg9
g10
sg11
g12
sg13
g14
sg15
g16
sg17
g18
sg19
g20
sS'*'
g21
sg22
g23
sg24
g23
sg25
g26
sg27
g23
ssg28
S'VesselNetworkGraphCalculator'
p703
sg30
I00
sg31
I00
sg32
Nsg33
g633
sg35
I01
sg36
I01
sg37
I00
sg38
Nsg39
g106
sg40
Nsg41
Nsg42
I00
sg43
S'/home/grogan/Chaste/projects/MicrovesselChaste/src/population/vessel/calculators/VesselNetworkGraphCalculator.hpp'
p704
sg44
I00
sba(iwrapper_utilities.class_data
CppClass
p705
(dp706
g4
Nsg5
(dp707
g7
g8
sg9
g10
sg11
g12
sg13
g14
sg15
g16
sg17
g18
sg19
g20
sS'*'
g21
sg22
g23
sg24
g23
sg25
g26
sg27
g23
ssg28
S'AbstractVesselNetworkComponentProperties'
p708
sg30
I00
sg31
I00
sg32
Nsg33
g633
sg35
I01
sg36
I01
sg37
I00
sg38
Nsg39
g106
sg40
Nsg41
Nsg42
I00
sg43
S'/home/grogan/Chaste/projects/MicrovesselChaste/src/population/vessel/properties/AbstractVesselNetworkComponentProperties.hpp'
p709
sg44
I00
sba(iwrapper_utilities.class_data
CppClass
p710
(dp711
g4
Nsg5
(dp712
g7
g8
sg9
g10
sg11
g12
sg13
g14
sg15
g16
sg17
g18
sg19
g20
sS'*'
g21
sg22
g23
sg24
g23
sg25
g26
sg27
g23
ssg28
S'AbstractVesselNetworkComponentFlowProperties'
p713
sg30
I00
sg31
I00
sg32
Nsg33
g633
sg35
I01
sg36
I01
sg37
I00
sg38
Nsg39
g106
sg40
Nsg41
Nsg42
I00
sg43
S'/home/grogan/Chaste/projects/MicrovesselChaste/src/population/vessel/properties/AbstractVesselNetworkComponentFlowProperties.hpp'
p714
sg44
I00
sba(iwrapper_utilities.class_data
CppClass
p715
(dp716
g4
Nsg5
(dp717
g7
g8
sg9
g10
sg11
g12
sg13
g14
sg15
g16
sg17
g18
sg19
g20
sS'*'
g21
sg22
g23
sg24
g23
sg25
g26
sg27
g23
ssg28
S'AbstractVesselNetworkComponentChemicalProperties'
p718
sg30
I00
sg31
I00
sg32
Nsg33
g633
sg35
I01
sg36
I01
sg37
I00
sg38
Nsg39
g106
sg40
Nsg41
Nsg42
I00
sg43
S'/home/grogan/Chaste/projects/MicrovesselChaste/src/population/vessel/properties/AbstractVesselNetworkComponentChemicalProperties.hpp'
p719
sg44
I00
sba(iwrapper_utilities.class_data
CppClass
p720
(dp721
g4
Nsg5
(dp722
g7
g8
sg9
g10
sg11
g12
sg13
g14
sg15
g16
sg17
g18
sg19
g20
sS'*'
g21
sg22
g23
sg24
g23
sg25
g26
sg27
g23
ssg28
S'MicrovesselVtkScene'
p723
sg30
I00
sg31
I00
sg32
Nsg33
S'visualization'
p724
sg35
I01
sg36
I01
sg37
I00
sg38
Nsg39
g106
sg40
Nsg41
Nsg42
I00
sg43
S'/home/grogan/Chaste/projects/MicrovesselChaste/src/utility/visualization/MicrovesselVtkScene.hpp'
p725
sg44
I00
sba(iwrapper_utilities.class_data
CppClass
p726
(dp727
g4
Nsg5
(dp728
g7
g8
sg9
g10
sg11
g12
sg13
g14
sg15
g16
sg17
g18
sg19
g20
sS'*'
g21
sg22
g23
sg24
g23
sg25
g26
sg27
g23
ssg28
S'CellPopulationActorGenerator'
p729
sg30
I00
sg31
I00
sg32
Nsg33
g724
sg35
I01
sg36
I01
sg37
I00
sg38
Nsg39
g106
sg40
Nsg41
Nsg42
I00
sg43
S'/home/grogan/Chaste/projects/MicrovesselChaste/src/utility/visualization/CellPopulationActorGenerator.hpp'
p730
sg44
I00
sba(iwrapper_utilities.class_data
CppClass
p731
(dp732
g4
Nsg5
(dp733
g7
g8
sg9
g10
sg11
g12
sg13
g14
sg15
g16
sg17
g18
sg19
g20
sS'*'
g21
sg22
g23
sg24
g23
sg25
g26
sg27
g23
ssg28
S'DiscreteContinuumMeshActorGenerator'
p734
sg30
I00
sg31
I00
sg32
Nsg33
g724
sg35
I01
sg36
I01
sg37
I00
sg38
Nsg39
g106
sg40
Nsg41
Nsg42
I00
sg43
S'/home/grogan/Chaste/projects/MicrovesselChaste/src/utility/visualization/DiscreteContinuumMeshActorGenerator.hpp'
p735
sg44
I00
sba(iwrapper_utilities.class_data
CppClass
p736
(dp737
g4
Nsg5
(dp738
g7
g8
sg9
g10
sg11
g12
sg13
g14
sg15
g16
sg17
g18
sg19
g20
sS'*'
g21
sg22
g23
sg24
g23
sg25
g26
sg27
g23
ssg28
S'PartActorGenerator'
p739
sg30
I00
sg31
I00
sg32
Nsg33
g724
sg35
I01
sg36
I01
sg37
I00
sg38
Nsg39
g106
sg40
Nsg41
Nsg42
I00
sg43
S'/home/grogan/Chaste/projects/MicrovesselChaste/src/utility/visualization/PartActorGenerator.hpp'
p740
sg44
I00
sba(iwrapper_utilities.class_data
CppClass
p741
(dp742
g4
Nsg5
(dp743
g7
g8
sg9
g10
sg11
g12
sg13
g14
sg15
g16
sg17
g18
sg19
g20
sS'*'
g21
sg22
g23
sg24
g23
sg25
g26
sg27
g23
ssg28
S'RegularGridActorGenerator'
p744
sg30
I00
sg31
I00
sg32
Nsg33
g724
sg35
I01
sg36
I01
sg37
I00
sg38
Nsg39
g106
sg40
Nsg41
Nsg42
I00
sg43
S'/home/grogan/Chaste/projects/MicrovesselChaste/src/utility/visualization/RegularGridActorGenerator.hpp'
p745
sg44
I00
sba(iwrapper_utilities.class_data
CppClass
p746
(dp747
g4
Nsg5
(dp748
g7
g8
sg9
g10
sg11
g12
sg13
g14
sg15
g16
sg17
g18
sg19
g20
sS'*'
g21
sg22
g23
sg24
g23
sg25
g26
sg27
g23
ssg28
S'VesselNetworkActorGenerator'
p749
sg30
I00
sg31
I00
sg32
Nsg33
g724
sg35
I01
sg36
I01
sg37
I00
sg38
Nsg39
g106
sg40
Nsg41
Nsg42
I00
sg43
S'/home/grogan/Chaste/projects/MicrovesselChaste/src/utility/visualization/VesselNetworkActorGenerator.hpp'
p750
sg44
I00
sba(iwrapper_utilities.class_data
CppClass
p751
(dp752
g4
Nsg5
(dp753
g7
g8
sg9
g10
sg11
g12
sg13
g14
sg15
g16
sg17
g18
sg19
g20
sS'*'
g21
sg22
g23
sg24
g23
sg25
g26
sg27
g23
ssg28
S'AbstractActorGenerator'
p754
sg30
I00
sg31
I00
sg32
Nsg33
g724
sg35
I01
sg36
I01
sg37
I00
sg38
Nsg39
g106
sg40
Nsg41
Nsg42
I00
sg43
S'/home/grogan/Chaste/projects/MicrovesselChaste/src/utility/visualization/AbstractActorGenerator.hpp'
p755
sg44
I00
sba(iwrapper_utilities.class_data
CppClass
p756
(dp757
g4
Nsg5
(dp758
g7
g8
sg9
g10
sg11
g12
sg13
g14
sg15
g16
sg17
g18
sg19
g20
sS'*'
g21
sg22
g23
sg24
g23
sg25
g26
sg27
g23
ssg28
g614
sg30
I00
sg31
I00
sg32
Nsg33
g604
sg35
I01
sg36
I01
sg37
I00
sg38
Nsg39
g106
sg40
Nsg41
Nsg42
I00
sg43
S'/home/grogan/Chaste/projects/MicrovesselChaste/src/simulation/modifiers/AbstractMicrovesselModifier.hpp'
p759
sg44
I00
sba(iwrapper_utilities.class_data
CppClass
p760
(dp761
g4
Nsg5
(dp762
g7
g8
sg9
g10
sg11
g12
sg13
g14
sg15
g16
sg17
g18
sg19
g20
sS'*'
g21
sg22
g23
sg24
g23
sg25
g26
sg27
g23
ssg28
g618
sg30
I00
sg31
I00
sg32
Nsg33
g604
sg35
I01
sg36
I01
sg37
I00
sg38
Nsg39
g106
sg40
Nsg41
Nsg42
I00
sg43
S'/home/grogan/Chaste/projects/MicrovesselChaste/src/simulation/modifiers/VtkSceneMicrovesselModifier.hpp'
p763
sg44
I00
sba(iwrapper_utilities.class_data
CppClass
p764
(dp765
g4
Nsg5
(dp766
g7
g8
sg9
g10
sg11
g12
sg13
g14
sg15
g16
sg17
g18
sg19
g20
sS'*'
g21
sg22
g23
sg24
g23
sg25
g26
sg27
g23
ssg28
S'ParameterInstance'
p767
sg30
I00
sg31
I00
sg32
Nsg33
S'utility'
p768
sg35
I01
sg36
I00
sg37
I01
sg38
Nsg39
Nsg40
Nsg41
Nsg42
I00
sg43
S'/home/grogan/Chaste/projects/MicrovesselChaste/src/utility/ParameterInstance.hpp'
p769
sg44
I00
sba(iwrapper_utilities.class_data
CppClass
p770
(dp771
g4
Nsg5
(dp772
g7
g8
sg9
g10
sg11
g12
sg13
g14
sg15
g16
sg17
g18
sg19
g20
sS'*'
g21
sg22
g23
sg24
g23
sg25
g26
sg27
g23
ssg28
S'BaseUnits'
p773
sg30
I00
sg31
I00
sg32
Nsg33
g768
sg35
I01
sg36
I01
sg37
I00
sg38
Nsg39
Nsg40
Nsg41
Nsg42
I00
sg43
S'/home/grogan/Chaste/projects/MicrovesselChaste/src/utility/BaseUnits.hpp'
p774
sg44
I00
sba(iwrapper_utilities.class_data
CppClass
p775
(dp776
g4
Nsg5
(dp777
g7
g8
sg9
g10
sg11
g12
sg13
g14
sg15
g16
sg17
g18
sg19
g20
sS'*'
g21
sg22
g23
sg24
g23
sg25
g26
sg27
g23
ssg28
S'UnitCollection'
p778
sg30
I00
sg31
I00
sg32
Nsg33
g768
sg35
I01
sg36
I00
sg37
I01
sg38
Nsg39
Nsg40
Nsg41
Nsg42
I00
sg43
S'/home/grogan/Chaste/projects/MicrovesselChaste/src/utility/UnitCollection.hpp'
p779
sg44
I00
sba(iwrapper_utilities.class_data
CppClass
p780
(dp781
g4
Nsg5
(dp782
g7
g8
sg9
g10
sg11
g12
sg13
g14
sg15
g16
sg17
g18
sg19
g20
sS'*'
g21
sg22
g23
sg24
g23
sg25
g26
sg27
g23
ssg28
S'ParameterCollection'
p783
sg30
I00
sg31
I00
sg32
Nsg33
g768
sg35
I01
sg36
I01
sg37
I00
sg38
Nsg39
Nsg40
Nsg41
Nsg42
I00
sg43
S'/home/grogan/Chaste/projects/MicrovesselChaste/src/utility/ParameterCollection.hpp'
p784
sg44
I00
sba(iwrapper_utilities.class_data
CppClass
p785
(dp786
g4
Nsg5
(dp787
g7
g8
sg9
g10
sg11
g12
sg13
g14
sg15
g16
sg17
g18
sg19
g20
sS'*'
g21
sg22
g23
sg24
g23
sg25
g26
sg27
g23
ssg28
S'BaseParameterInstance'
p788
sg30
I00
sg31
I00
sg32
Nsg33
g768
sg35
I01
sg36
I01
sg37
I00
sg38
Nsg39
Nsg40
Nsg41
Nsg42
I00
sg43
S'/home/grogan/Chaste/projects/MicrovesselChaste/src/utility/BaseParameterInstance.hpp'
p789
sg44
I00
sba(iwrapper_utilities.class_data
CppClass
p790
(dp791
g4
Nsg5
(dp792
g7
g8
sg9
g10
sg11
g12
sg13
g14
sg15
g16
sg17
g18
sg19
g20
sS'*'
g21
sg22
g23
sg24
g23
sg25
g26
sg27
g23
ssg28
S'Owen11Parameters'
p793
sg30
I00
sg31
I00
sg32
Nsg33
g768
sg35
I01
sg36
I01
sg37
I00
sg38
Nsg39
Nsg40
Nsg41
Nsg42
I00
sg43
S'/home/grogan/Chaste/projects/MicrovesselChaste/src/utility/literature_parameters/Owen11Parameters.hpp'
p794
sg44
I00
sba(iwrapper_utilities.class_data
CppClass
p795
(dp796
g4
Nsg5
(dp797
g7
g8
sg9
g10
sg11
g12
sg13
g14
sg15
g16
sg17
g18
sg19
g20
sS'*'
g21
sg22
g23
sg24
g23
sg25
g26
sg27
g23
ssg28
S'Connor17Parameters'
p798
sg30
I00
sg31
I00
sg32
Nsg33
g768
sg35
I01
sg36
I01
sg37
I00
sg38
Nsg39
Nsg40
Nsg41
Nsg42
I00
sg43
S'/home/grogan/Chaste/projects/MicrovesselChaste/src/utility/literature_parameters/Connor17Parameters.hpp'
p799
sg44
I00
sba(iwrapper_utilities.class_data
CppClass
p800
(dp801
g4
Nsg5
(dp802
g7
g8
sg9
g10
sg11
g12
sg13
g14
sg15
g16
sg17
g18
sg19
g20
sS'*'
g21
sg22
g23
sg24
g23
sg25
g26
sg27
g23
ssg28
S'Secomb04Parameters'
p803
sg30
I00
sg31
I00
sg32
Nsg33
g768
sg35
I01
sg36
I01
sg37
I00
sg38
Nsg39
Nsg40
Nsg41
Nsg42
I00
sg43
S'/home/grogan/Chaste/projects/MicrovesselChaste/src/utility/literature_parameters/Secomb04Parameters.hpp'
p804
sg44
I00
sba(iwrapper_utilities.class_data
CppClass
p805
(dp806
g4
Nsg5
(dp807
g7
g8
sg9
g10
sg11
g12
sg13
g14
sg15
g16
sg17
g18
sg19
g20
sS'*'
g21
sg22
g23
sg24
g23
sg25
g26
sg27
g23
ssg28
S'GenericParameters'
p808
sg30
I00
sg31
I00
sg32
Nsg33
g768
sg35
I01
sg36
I01
sg37
I00
sg38
Nsg39
Nsg40
Nsg41
Nsg42
I00
sg43
S'/home/grogan/Chaste/projects/MicrovesselChaste/src/utility/literature_parameters/GenericParameters.hpp'
p809
sg44
I00
sba.