(lp1
(iwrapper_utilities.class_data
CppClass
p2
(dp3
S'pointer_return_methods'
p4
NsS'name_replacements'
p5
(dp6
S'std::string'
p7
S'String'
p8
sS'c_vector'
p9
S'CVector'
p10
sS'std::set'
p11
S'Set'
p12
sS'std::pair'
p13
S'Pair'
p14
sS'std::map'
p15
S'Map'
p16
sS'boost::shared_ptr'
p17
S'SharedPtr'
p18
sS'std::vector'
p19
S'Vector'
p20
sS'*'
S'Ptr'
p21
sS'unsigned'
p22
S'Unsigned'
p23
sS'unsigned int'
p24
g23
sS'double'
p25
S'Double'
p26
sS'Unsigned int'
p27
g23
ssS'name'
p28
S'std::string'
p29
sS'include_ptr_self'
p30
I00
sS'include_raw_ptr_self'
p31
I00
sS'declaration_code'
p32
NsS'component'
p33
S'extra'
p34
sS'needs_include_file'
p35
I00
sS'needs_instantiation'
p36
I00
sS'skip_wrapping'
p37
I01
sS'excluded_variables'
p38
NsS'template_args'
p39
NsS'excluded_methods'
p40
NsS'name_override'
p41
NsS'include_vec_ptr_self'
p42
I00
sS'full_path'
p43
NsS'include_file_only'
p44
I00
sba(iwrapper_utilities.class_data
CppClass
p45
(dp46
g4
Nsg5
(dp47
g7
g8
sg9
g10
sg11
g12
sg13
g14
sg15
g16
sg17
g18
sg19
g20
sS'*'
g21
sg22
g23
sg24
g23
sg25
g26
sg27
g23
ssg28
S'std::map'
p48
sg30
I00
sg31
I00
sg32
Nsg33
g34
sg35
I00
sg36
I00
sg37
I01
sg38
Nsg39
(lp49
(lp50
g29
ag29
aa(lp51
S'int'
p52
ag29
aa(lp53
S'std::string, double'
p54
aasg40
Nsg41
Nsg42
I00
sg43
Nsg44
I00
sba(iwrapper_utilities.class_data
CppClass
p55
(dp56
g4
Nsg5
(dp57
g7
g8
sg9
g10
sg11
g12
sg13
g14
sg15
g16
sg17
g18
sg19
g20
sS'*'
g21
sg22
g23
sg24
g23
sg25
g26
sg27
g23
ssg28
S'std::set'
p58
sg30
I00
sg31
I00
sg32
Nsg33
g34
sg35
I00
sg36
I00
sg37
I01
sg38
Nsg39
(lp59
(lp60
g22
aasg40
Nsg41
Nsg42
I00
sg43
Nsg44
I00
sba(iwrapper_utilities.class_data
CppClass
p61
(dp62
g4
Nsg5
(dp63
g7
g8
sg9
g10
sg11
g12
sg13
g14
sg15
g16
sg17
g18
sg19
g20
sS'*'
g21
sg22
g23
sg24
g23
sg25
g26
sg27
g23
ssg28
S'std::pair'
p64
sg30
I00
sg31
I00
sg32
Nsg33
g34
sg35
I00
sg36
I00
sg37
I01
sg38
Nsg39
(lp65
(lp66
S'unsigned int, unsigned int'
p67
aa(lp68
S'std::vector<double>, double'
p69
aasg40
Nsg41
Nsg42
I00
sg43
Nsg44
I00
sba(iwrapper_utilities.class_data
CppClass
p70
(dp71
g4
Nsg5
(dp72
g7
g8
sg9
g10
sg11
g12
sg13
g14
sg15
g16
sg17
g18
sg19
g20
sS'*'
g21
sg22
g23
sg24
g23
sg25
g26
sg27
g23
ssg28
S'std::vector'
p73
sg30
I00
sg31
I00
sg32
Nsg33
g34
sg35
I00
sg36
I00
sg37
I01
sg38
Nsg39
(lp74
(lp75
g25
aa(lp76
g22
aa(lp77
g52
aa(lp78
S'bool'
p79
aa(lp80
g29
aa(lp81
S'c_vector<double,3>'
p82
aa(lp83
S'c_vector<double,2>'
p84
aa(lp85
S'c_vector<unsigned,5>'
p86
aa(lp87
S'std::set<unsigned int>'
p88
aa(lp89
S'std::vector<unsigned int>'
p90
aa(lp91
S'std::pair<unsigned int, unsigned int>'
p92
aa(lp93
S'std::pair<std::vector<double>, double>'
p94
aasg40
Nsg41
Nsg42
I00
sg43
Nsg44
I00
sba(iwrapper_utilities.class_data
CppClass
p95
(dp96
g4
Nsg5
(dp97
g7
g8
sg9
g10
sg11
g12
sg13
g14
sg15
g16
sg17
g18
sg19
g20
sS'*'
g21
sg22
g23
sg24
g23
sg25
g26
sg27
g23
ssg28
g9
sg30
I00
sg31
I00
sg32
Nsg33
g34
sg35
I00
sg36
I00
sg37
I01
sg38
Nsg39
(lp98
(lp99
g25
aI2
aa(lp100
g25
aI3
aa(lp101
g22
aI5
aasg40
Nsg41
Nsg42
I00
sg43
Nsg44
I00
sba(iwrapper_utilities.class_data
CppClass
p102
(dp103
g4
Nsg5
(dp104
g7
g8
sg9
g10
sg11
g12
sg13
g14
sg15
g16
sg17
g18
sg19
g20
sS'*'
g21
sg22
g23
sg24
g23
sg25
g26
sg27
g23
ssg28
S'Polygon'
p105
sg30
I00
sg31
I00
sg32
Nsg33
S'geometry'
p106
sg35
I01
sg36
I01
sg37
I00
sg38
Nsg39
(lp107
(lp108
I2
aa(lp109
I3
aasg40
Nsg41
Nsg42
I01
sg43
S'/home/grogan/Chaste/projects/MicrovesselChaste/src/geometry/Polygon.hpp'
p110
sg44
I00
sba(iwrapper_utilities.class_data
CppClass
p111
(dp112
g4
Nsg5
(dp113
g7
g8
sg9
g10
sg11
g12
sg13
g14
sg15
g16
sg17
g18
sg19
g20
sS'*'
g21
sg22
g23
sg24
g23
sg25
g26
sg27
g23
ssg28
S'Facet'
p114
sg30
I00
sg31
I00
sg32
Nsg33
g106
sg35
I01
sg36
I01
sg37
I00
sg38
Nsg39
g107
sg40
Nsg41
Nsg42
I01
sg43
S'/home/grogan/Chaste/projects/MicrovesselChaste/src/geometry/Facet.hpp'
p115
sg44
I00
sba(iwrapper_utilities.class_data
CppClass
p116
(dp117
g4
Nsg5
(dp118
g7
g8
sg9
g10
sg11
g12
sg13
g14
sg15
g16
sg17
g18
sg19
g20
sS'*'
g21
sg22
g23
sg24
g23
sg25
g26
sg27
g23
ssg28
S'Part'
p119
sg30
I00
sg31
I00
sg32
Nsg33
g106
sg35
I01
sg36
I01
sg37
I00
sg38
Nsg39
g107
sg40
Nsg41
Nsg42
I00
sg43
S'/home/grogan/Chaste/projects/MicrovesselChaste/src/geometry/Part.hpp'
p120
sg44
I00
sba(iwrapper_utilities.class_data
CppClass
p121
(dp122
g4
Nsg5
(dp123
g7
g8
sg9
g10
sg11
g12
sg13
g14
sg15
g16
sg17
g18
sg19
g20
sS'*'
g21
sg22
g23
sg24
g23
sg25
g26
sg27
g23
ssg28
S'MappableGridGenerator'
p124
sg30
I00
sg31
I00
sg32
Nsg33
g106
sg35
I01
sg36
I01
sg37
I00
sg38
Nsg39
g107
sg40
Nsg41
Nsg42
I00
sg43
S'/home/grogan/Chaste/projects/MicrovesselChaste/src/geometry/generators/MappableGridGenerator.hpp'
p125
sg44
I00
sba(iwrapper_utilities.class_data
CppClass
p126
(dp127
g4
Nsg5
(dp128
g7
g8
sg9
g10
sg11
g12
sg13
g14
sg15
g16
sg17
g18
sg19
g20
sS'*'
g21
sg22
g23
sg24
g23
sg25
g26
sg27
g23
ssg28
S'NetworkToSurface'
p129
sg30
I00
sg31
I00
sg32
Nsg33
g106
sg35
I01
sg36
I01
sg37
I00
sg38
Nsg39
g107
sg40
Nsg41
Nsg42
I00
sg43
S'/home/grogan/Chaste/projects/MicrovesselChaste/src/geometry/generators/NetworkToSurface.hpp'
p130
sg44
I00
sba(iwrapper_utilities.class_data
CppClass
p131
(dp132
g4
Nsg5
(dp133
g7
g8
sg9
g10
sg11
g12
sg13
g14
sg15
g16
sg17
g18
sg19
g20
sS'*'
g21
sg22
g23
sg24
g23
sg25
g26
sg27
g23
ssg28
S'VesselSurfaceGenerator'
p134
sg30
I00
sg31
I00
sg32
Nsg33
g106
sg35
I01
sg36
I01
sg37
I00
sg38
Nsg39
g107
sg40
Nsg41
Nsg42
I00
sg43
S'/home/grogan/Chaste/projects/MicrovesselChaste/src/geometry/generators/VesselSurfaceGenerator.hpp'
p135
sg44
I00
sba(iwrapper_utilities.class_data
CppClass
p136
(dp137
g4
Nsg5
(dp138
g7
g8
sg9
g10
sg11
g12
sg13
g14
sg15
g16
sg17
g18
sg19
g20
sS'*'
g21
sg22
g23
sg24
g23
sg25
g26
sg27
g23
ssg28
S'BoundaryExtractor'
p139
sg30
I00
sg31
I00
sg32
Nsg33
g106
sg35
I01
sg36
I01
sg37
I00
sg38
Nsg39
Nsg40
Nsg41
Nsg42
I00
sg43
S'/home/grogan/Chaste/projects/MicrovesselChaste/src/geometry/tools/BoundaryExtractor.hpp'
p140
sg44
I00
sba(iwrapper_utilities.class_data
CppClass
p141
(dp142
g4
Nsg5
(dp143
g7
g8
sg9
g10
sg11
g12
sg13
g14
sg15
g16
sg17
g18
sg19
g20
sS'*'
g21
sg22
g23
sg24
g23
sg25
g26
sg27
g23
ssg28
S'SurfaceCleaner'
p144
sg30
I00
sg31
I00
sg32
Nsg33
g106
sg35
I01
sg36
I01
sg37
I00
sg38
Nsg39
Nsg40
Nsg41
Nsg42
I00
sg43
S'/home/grogan/Chaste/projects/MicrovesselChaste/src/geometry/tools/SurfaceCleaner.hpp'
p145
sg44
I00
sba(iwrapper_utilities.class_data
CppClass
p146
(dp147
g4
Nsg5
(dp148
g7
g8
sg9
g10
sg11
g12
sg13
g14
sg15
g16
sg17
g18
sg19
g20
sS'*'
g21
sg22
g23
sg24
g23
sg25
g26
sg27
g23
ssg28
S'GeometryFormat'
p149
sg30
I00
sg31
I00
sg32
Nsg33
g106
sg35
I00
sg36
I01
sg37
I00
sg38
Nsg39
Nsg40
Nsg41
Nsg42
I00
sg43
Nsg44
I00
sba(iwrapper_utilities.class_data
CppClass
p150
(dp151
g4
Nsg5
(dp152
g7
g8
sg9
g10
sg11
g12
sg13
g14
sg15
g16
sg17
g18
sg19
g20
sS'*'
g21
sg22
g23
sg24
g23
sg25
g26
sg27
g23
ssg28
S'GeometryWriter'
p153
sg30
I00
sg31
I00
sg32
Nsg33
g106
sg35
I01
sg36
I01
sg37
I00
sg38
Nsg39
Nsg40
Nsg41
Nsg42
I00
sg43
S'/home/grogan/Chaste/projects/MicrovesselChaste/src/geometry/writers/GeometryWriter.hpp'
p154
sg44
I00
sba(iwrapper_utilities.class_data
CppClass
p155
(dp156
g4
Nsg5
(dp157
g7
g8
sg9
g10
sg11
g12
sg13
g14
sg15
g16
sg17
g18
sg19
g20
sS'*'
g21
sg22
g23
sg24
g23
sg25
g26
sg27
g23
ssg28
g73
sg30
I00
sg31
I00
sg32
Nsg33
Nsg35
I00
sg36
I00
sg37
I01
sg38
Nsg39
(lp158
(lp159
S'std::pair<DimensionalChastePoint<2>, int>'
p160
aa(lp161
S'std::pair<DimensionalChastePoint<3>, int>'
p162
aa(lp163
S'std::pair<DimensionalChastePoint<3>, unsigned>'
p164
aa(lp165
g164
aa(lp166
S'std::pair<std::pair<int, int>, int>'
p167
aa(lp168
S'std::map<std::string, double>'
p169
aasg40
Nsg41
Nsg42
I00
sg43
Nsg44
I00
sba(iwrapper_utilities.class_data
CppClass
p170
(dp171
g4
Nsg5
(dp172
g7
g8
sg9
g10
sg11
g12
sg13
g14
sg15
g16
sg17
g18
sg19
g20
sS'*'
g21
sg22
g23
sg24
g23
sg25
g26
sg27
g23
ssg28
S'AbstractMesh'
p173
sg30
I00
sg31
I00
sg32
Nsg33
S'mesh'
p174
sg35
I01
sg36
I01
sg37
I00
sg38
Nsg39
(lp175
(lp176
I2
aI2
aa(lp177
I3
aI3
aasg40
Nsg41
Nsg42
I00
sg43
S'/home/grogan/Chaste/mesh/src/common/AbstractMesh.hpp'
p178
sg44
I00
sba(iwrapper_utilities.class_data
CppClass
p179
(dp180
g4
Nsg5
(dp181
g7
g8
sg9
g10
sg11
g12
sg13
g14
sg15
g16
sg17
g18
sg19
g20
sS'*'
g21
sg22
g23
sg24
g23
sg25
g26
sg27
g23
ssg28
S'AbstractTetrahedralMesh'
p182
sg30
I00
sg31
I00
sg32
Nsg33
g174
sg35
I01
sg36
I01
sg37
I00
sg38
Nsg39
g175
sg40
Nsg41
Nsg42
I00
sg43
S'/home/grogan/Chaste/mesh/src/common/AbstractTetrahedralMesh.hpp'
p183
sg44
I00
sba(iwrapper_utilities.class_data
CppClass
p184
(dp185
g4
Nsg5
(dp186
g7
g8
sg9
g10
sg11
g12
sg13
g14
sg15
g16
sg17
g18
sg19
g20
sS'*'
g21
sg22
g23
sg24
g23
sg25
g26
sg27
g23
ssg28
S'TetrahedralMesh'
p187
sg30
I00
sg31
I00
sg32
Nsg33
g174
sg35
I01
sg36
I01
sg37
I00
sg38
Nsg39
g175
sg40
(lp188
S'FreeTriangulateIo'
p189
aS'InitialiseTriangulateIo'
p190
asg41
Nsg42
I00
sg43
S'/home/grogan/Chaste/mesh/src/common/TetrahedralMesh.hpp'
p191
sg44
I00
sba(iwrapper_utilities.class_data
CppClass
p192
(dp193
g4
Nsg5
(dp194
g7
g8
sg9
g10
sg11
g12
sg13
g14
sg15
g16
sg17
g18
sg19
g20
sS'*'
g21
sg22
g23
sg24
g23
sg25
g26
sg27
g23
ssg28
S'AbstractDiscreteContinuumGrid'
p195
sg30
I00
sg31
I00
sg32
Nsg33
g174
sg35
I01
sg36
I01
sg37
I00
sg38
Nsg39
g175
sg40
Nsg41
Nsg42
I00
sg43
S'/home/grogan/Chaste/projects/MicrovesselChaste/src/mesh/AbstractDiscreteContinuumGrid.hpp'
p196
sg44
I00
sba(iwrapper_utilities.class_data
CppClass
p197
(dp198
g4
Nsg5
(dp199
g7
g8
sg9
g10
sg11
g12
sg13
g14
sg15
g16
sg17
g18
sg19
g20
sS'*'
g21
sg22
g23
sg24
g23
sg25
g26
sg27
g23
ssg28
S'DimensionalChastePoint'
p200
sg30
I00
sg31
I00
sg32
Nsg33
g174
sg35
I01
sg36
I01
sg37
I00
sg38
Nsg39
g107
sg40
Nsg41
Nsg42
I01
sg43
S'/home/grogan/Chaste/projects/MicrovesselChaste/src/mesh/DimensionalChastePoint.hpp'
p201
sg44
I00
sba(iwrapper_utilities.class_data
CppClass
p202
(dp203
g4
Nsg5
(dp204
g7
g8
sg9
g10
sg11
g12
sg13
g14
sg15
g16
sg17
g18
sg19
g20
sS'*'
g21
sg22
g23
sg24
g23
sg25
g26
sg27
g23
ssg28
S'DiscreteContinuumMesh'
p205
sg30
I00
sg31
I00
sg32
Nsg33
g174
sg35
I01
sg36
I01
sg37
I00
sg38
Nsg39
g175
sg40
Nsg41
Nsg42
I00
sg43
S'/home/grogan/Chaste/projects/MicrovesselChaste/src/mesh/DiscreteContinuumMesh.hpp'
p206
sg44
I00
sba(iwrapper_utilities.class_data
CppClass
p207
(dp208
g4
Nsg5
(dp209
g7
g8
sg9
g10
sg11
g12
sg13
g14
sg15
g16
sg17
g18
sg19
g20
sS'*'
g21
sg22
g23
sg24
g23
sg25
g26
sg27
g23
ssg28
S'DiscreteContinuumMeshGenerator'
p210
sg30
I00
sg31
I00
sg32
Nsg33
g174
sg35
I01
sg36
I01
sg37
I00
sg38
Nsg39
g175
sg40
Nsg41
Nsg42
I00
sg43
S'/home/grogan/Chaste/projects/MicrovesselChaste/src/mesh/DiscreteContinuumMeshGenerator.hpp'
p211
sg44
I00
sba(iwrapper_utilities.class_data
CppClass
p212
(dp213
g4
Nsg5
(dp214
g7
g8
sg9
g10
sg11
g12
sg13
g14
sg15
g16
sg17
g18
sg19
g20
sS'*'
g21
sg22
g23
sg24
g23
sg25
g26
sg27
g23
ssg28
S'GridCalculator'
p215
sg30
I00
sg31
I00
sg32
Nsg33
g174
sg35
I01
sg36
I01
sg37
I00
sg38
Nsg39
g107
sg40
Nsg41
Nsg42
I00
sg43
S'/home/grogan/Chaste/projects/MicrovesselChaste/src/mesh/GridCalculator.hpp'
p216
sg44
I00
sba(iwrapper_utilities.class_data
CppClass
p217
(dp218
g4
Nsg5
(dp219
g7
g8
sg9
g10
sg11
g12
sg13
g14
sg15
g16
sg17
g18
sg19
g20
sS'*'
g21
sg22
g23
sg24
g23
sg25
g26
sg27
g23
ssg28
S'MeshReader'
p220
sg30
I00
sg31
I00
sg32
Nsg33
g174
sg35
I01
sg36
I01
sg37
I00
sg38
Nsg39
Nsg40
Nsg41
Nsg42
I00
sg43
S'/home/grogan/Chaste/projects/MicrovesselChaste/src/mesh/MeshReader.hpp'
p221
sg44
I00
sba(iwrapper_utilities.class_data
CppClass
p222
(dp223
g4
Nsg5
(dp224
g7
g8
sg9
g10
sg11
g12
sg13
g14
sg15
g16
sg17
g18
sg19
g20
sS'*'
g21
sg22
g23
sg24
g23
sg25
g26
sg27
g23
ssg28
S'MultiFormatMeshWriter'
p225
sg30
I00
sg31
I00
sg32
Nsg33
g174
sg35
I01
sg36
I01
sg37
I00
sg38
Nsg39
g107
sg40
Nsg41
Nsg42
I00
sg43
S'/home/grogan/Chaste/projects/MicrovesselChaste/src/mesh/MultiFormatMeshWriter.hpp'
p226
sg44
I00
sba(iwrapper_utilities.class_data
CppClass
p227
(dp228
g4
Nsg5
(dp229
g7
g8
sg9
g10
sg11
g12
sg13
g14
sg15
g16
sg17
g18
sg19
g20
sS'*'
g21
sg22
g23
sg24
g23
sg25
g26
sg27
g23
ssg28
S'RegularGrid'
p230
sg30
I00
sg31
I00
sg32
Nsg33
g174
sg35
I01
sg36
I01
sg37
I00
sg38
Nsg39
g107
sg40
Nsg41
Nsg42
I00
sg43
S'/home/grogan/Chaste/projects/MicrovesselChaste/src/mesh/RegularGrid.hpp'
p231
sg44
I00
sba(iwrapper_utilities.class_data
CppClass
p232
(dp233
g4
Nsg5
(dp234
g7
g8
sg9
g10
sg11
g12
sg13
g14
sg15
g16
sg17
g18
sg19
g20
sS'*'
g21
sg22
g23
sg24
g23
sg25
g26
sg27
g23
ssg28
S'RegularGridWriter'
p235
sg30
I00
sg31
I00
sg32
Nsg33
g174
sg35
I01
sg36
I01
sg37
I00
sg38
Nsg39
Nsg40
Nsg41
Nsg42
I00
sg43
S'/home/grogan/Chaste/projects/MicrovesselChaste/src/mesh/RegularGridWriter.hpp'
p236
sg44
I00
sba(iwrapper_utilities.class_data
CppClass
p237
(dp238
g4
Nsg5
(dp239
g7
g8
sg9
g10
sg11
g12
sg13
g14
sg15
g16
sg17
g18
sg19
g20
sS'*'
g21
sg22
g23
sg24
g23
sg25
g26
sg27
g23
ssg28
S'MeshFormat'
p240
sg30
I00
sg31
I00
sg32
Nsg33
Nsg35
I00
sg36
I01
sg37
I00
sg38
Nsg39
Nsg40
Nsg41
Nsg42
I00
sg43
Nsg44
I00
sba(iwrapper_utilities.class_data
CppClass
p241
(dp242
g4
Nsg5
(dp243
g7
g8
sg9
g10
sg11
g12
sg13
g14
sg15
g16
sg17
g18
sg19
g20
sS'*'
g21
sg22
g23
sg24
g23
sg25
g26
sg27
g23
ssg28
g73
sg30
I00
sg31
I00
sg32
Nsg33
Nsg35
I00
sg36
I00
sg37
I01
sg38
Nsg39
(lp244
(lp245
S'std::vector<boost::shared_ptr<VesselNode<2> > >'
p246
aa(lp247
S'std::vector<boost::shared_ptr<VesselNode<3> > >'
p248
aa(lp249
S'std::vector<Node<3>* >'
p250
aa(lp251
S'std::vector<Node<2>* >'
p252
aa(lp253
S'Node<3>*'
p254
aa(lp255
S'Node<2>*'
p256
aa(lp257
S'std::vector<boost::shared_ptr<VesselSegment<2> > >'
p258
aa(lp259
S'std::vector<boost::shared_ptr<VesselSegment<3> > >'
p260
aa(lp261
S'std::vector<boost::shared_ptr<Cell> >'
p262
aa(lp263
S'DimensionalChastePoint2'
p264
aa(lp265
S'DimensionalChastePoint3'
p266
aasg40
Nsg41
Nsg42
I00
sg43
Nsg44
I00
sba(iwrapper_utilities.class_data
CppClass
p267
(dp268
g4
Nsg5
(dp269
g7
g8
sg9
g10
sg11
g12
sg13
g14
sg15
g16
sg17
g18
sg19
g20
sS'*'
g21
sg22
g23
sg24
g23
sg25
g26
sg27
g23
ssg28
g64
sg30
I00
sg31
I00
sg32
Nsg33
Nsg35
I00
sg36
I00
sg37
I01
sg38
Nsg39
(lp270
(lp271
S'DimensionalChastePoint2, DimensionalChastePoint2'
p272
aa(lp273
S'DimensionalChastePoint3, DimensionalChastePoint3'
p274
aasg40
Nsg41
Nsg42
I00
sg43
Nsg44
I00
sba(iwrapper_utilities.class_data
CppClass
p275
(dp276
g4
Nsg5
(dp277
g7
g8
sg9
g10
sg11
g12
sg13
g14
sg15
g16
sg17
g18
sg19
g20
sS'*'
g21
sg22
g23
sg24
g23
sg25
g26
sg27
g23
ssg28
S'AbstractCellKiller'
p278
sg30
I00
sg31
I00
sg32
Nsg33
Nsg35
I01
sg36
I01
sg37
I00
sg38
Nsg39
g107
sg40
Nsg41
Nsg42
I00
sg43
S'/home/grogan/Chaste/cell_based/src/population/killers/AbstractCellKiller.hpp'
p279
sg44
I00
sba(iwrapper_utilities.class_data
CppClass
p280
(dp281
g4
Nsg5
(dp282
g7
g8
sg9
g10
sg11
g12
sg13
g14
sg15
g16
sg17
g18
sg19
g20
sS'*'
g21
sg22
g23
sg24
g23
sg25
g26
sg27
g23
ssg28
S'AbstractCellMutationState'
p283
sg30
I00
sg31
I00
sg32
Nsg33
S'cell'
p284
sg35
I01
sg36
I01
sg37
I00
sg38
Nsg39
Nsg40
Nsg41
Nsg42
I00
sg43
S'/home/grogan/Chaste/cell_based/src/cell/properties/mutations/AbstractCellMutationState.hpp'
p285
sg44
I00
sba(iwrapper_utilities.class_data
CppClass
p286
(dp287
g4
Nsg5
(dp288
g7
g8
sg9
g10
sg11
g12
sg13
g14
sg15
g16
sg17
g18
sg19
g20
sS'*'
g21
sg22
g23
sg24
g23
sg25
g26
sg27
g23
ssg28
S'CancerCellMutationState'
p289
sg30
I00
sg31
I00
sg32
Nsg33
g284
sg35
I01
sg36
I01
sg37
I00
sg38
Nsg39
Nsg40
Nsg41
Nsg42
I00
sg43
S'/home/grogan/Chaste/projects/MicrovesselChaste/src/population/cell/properties/mutations/CancerCellMutationState.hpp'
p290
sg44
I00
sba(iwrapper_utilities.class_data
CppClass
p291
(dp292
g4
Nsg5
(dp293
g7
g8
sg9
g10
sg11
g12
sg13
g14
sg15
g16
sg17
g18
sg19
g20
sS'*'
g21
sg22
g23
sg24
g23
sg25
g26
sg27
g23
ssg28
S'QuiescentCancerCellMutationState'
p294
sg30
I00
sg31
I00
sg32
Nsg33
g284
sg35
I01
sg36
I01
sg37
I00
sg38
Nsg39
Nsg40
Nsg41
Nsg42
I00
sg43
S'/home/grogan/Chaste/projects/MicrovesselChaste/src/population/cell/properties/mutations/QuiescentCancerCellMutationState.hpp'
p295
sg44
I00
sba(iwrapper_utilities.class_data
CppClass
p296
(dp297
g4
Nsg5
(dp298
g7
g8
sg9
g10
sg11
g12
sg13
g14
sg15
g16
sg17
g18
sg19
g20
sS'*'
g21
sg22
g23
sg24
g23
sg25
g26
sg27
g23
ssg28
S'StalkCellMutationState'
p299
sg30
I00
sg31
I00
sg32
Nsg33
g284
sg35
I01
sg36
I01
sg37
I00
sg38
Nsg39
Nsg40
Nsg41
Nsg42
I00
sg43
S'/home/grogan/Chaste/projects/MicrovesselChaste/src/population/cell/properties/mutations/StalkCellMutationState.hpp'
p300
sg44
I00
sba(iwrapper_utilities.class_data
CppClass
p301
(dp302
g4
Nsg5
(dp303
g7
g8
sg9
g10
sg11
g12
sg13
g14
sg15
g16
sg17
g18
sg19
g20
sS'*'
g21
sg22
g23
sg24
g23
sg25
g26
sg27
g23
ssg28
S'TipCellMutationState'
p304
sg30
I00
sg31
I00
sg32
Nsg33
g284
sg35
I01
sg36
I01
sg37
I00
sg38
Nsg39
Nsg40
Nsg41
Nsg42
I00
sg43
S'/home/grogan/Chaste/projects/MicrovesselChaste/src/population/cell/properties/mutations/TipCellMutationState.hpp'
p305
sg44
I00
sba(iwrapper_utilities.class_data
CppClass
p306
(dp307
g4
Nsg5
(dp308
g7
g8
sg9
g10
sg11
g12
sg13
g14
sg15
g16
sg17
g18
sg19
g20
sS'*'
g21
sg22
g23
sg24
g23
sg25
g26
sg27
g23
ssg28
S'VesselCellMutationState'
p309
sg30
I00
sg31
I00
sg32
Nsg33
g284
sg35
I01
sg36
I01
sg37
I00
sg38
Nsg39
Nsg40
Nsg41
Nsg42
I00
sg43
S'/home/grogan/Chaste/projects/MicrovesselChaste/src/population/cell/properties/mutations/VesselCellMutationState.hpp'
p310
sg44
I00
sba(iwrapper_utilities.class_data
CppClass
p311
(dp312
g4
Nsg5
(dp313
g7
g8
sg9
g10
sg11
g12
sg13
g14
sg15
g16
sg17
g18
sg19
g20
sS'*'
g21
sg22
g23
sg24
g23
sg25
g26
sg27
g23
ssg28
S'MacrophageMutationState'
p314
sg30
I00
sg31
I00
sg32
Nsg33
g284
sg35
I01
sg36
I01
sg37
I00
sg38
Nsg39
Nsg40
Nsg41
Nsg42
I00
sg43
S'/home/grogan/Chaste/projects/MicrovesselChaste/src/population/cell/properties/mutations/MacrophageMutationState.hpp'
p315
sg44
I00
sba(iwrapper_utilities.class_data
CppClass
p316
(dp317
g4
Nsg5
(dp318
g7
g8
sg9
g10
sg11
g12
sg13
g14
sg15
g16
sg17
g18
sg19
g20
sS'*'
g21
sg22
g23
sg24
g23
sg25
g26
sg27
g23
ssg28
S'Owen2011OxygenBasedCellCycleModel'
p319
sg30
I00
sg31
I00
sg32
Nsg33
g284
sg35
I01
sg36
I01
sg37
I00
sg38
Nsg39
Nsg40
Nsg41
Nsg42
I00
sg43
S'/home/grogan/Chaste/projects/MicrovesselChaste/src/population/cell/cycle/Owen2011OxygenBasedCellCycleModel.hpp'
p320
sg44
I00
sba(iwrapper_utilities.class_data
CppClass
p321
(dp322
g4
Nsg5
(dp323
g7
g8
sg9
g10
sg11
g12
sg13
g14
sg15
g16
sg17
g18
sg19
g20
sS'*'
g21
sg22
g23
sg24
g23
sg25
g26
sg27
g23
ssg28
S'Owen11CellPopulationGenerator'
p324
sg30
I00
sg31
I00
sg32
Nsg33
g284
sg35
I01
sg36
I01
sg37
I00
sg38
Nsg39
g107
sg40
Nsg41
Nsg42
I00
sg43
S'/home/grogan/Chaste/projects/MicrovesselChaste/src/population/cell/Owen11CellPopulationGenerator.hpp'
p325
sg44
I00
sba(iwrapper_utilities.class_data
CppClass
p326
(dp327
g4
Nsg5
(dp328
g7
g8
sg9
g10
sg11
g12
sg13
g14
sg15
g16
sg17
g18
sg19
g20
sS'*'
g21
sg22
g23
sg24
g23
sg25
g26
sg27
g23
ssg28
S'CaBasedCellPopulation'
p329
sg30
I00
sg31
I00
sg32
Nsg33
Nsg35
I01
sg36
I01
sg37
I00
sg38
Nsg39
g107
sg40
Nsg41
Nsg42
I00
sg43
S'/home/grogan/Chaste/cell_based/src/population/CaBasedCellPopulation.hpp'
p330
sg44
I00
sba(iwrapper_utilities.class_data
CppClass
p331
(dp332
g4
Nsg5
(dp333
g7
g8
sg9
g10
sg11
g12
sg13
g14
sg15
g16
sg17
g18
sg19
g20
sS'*'
g21
sg22
g23
sg24
g23
sg25
g26
sg27
g23
ssg28
S'LQRadiotherapyCellKiller'
p334
sg30
I00
sg31
I00
sg32
Nsg33
g284
sg35
I01
sg36
I01
sg37
I00
sg38
Nsg39
g107
sg40
Nsg41
Nsg42
I00
sg43
S'/home/grogan/Chaste/projects/MicrovesselChaste/src/population/cell/killers/LQRadiotherapyCellKiller.hpp'
p335
sg44
I00
sba(iwrapper_utilities.class_data
CppClass
p336
(dp337
g4
Nsg5
(dp338
g7
g8
sg9
g10
sg11
g12
sg13
g14
sg15
g16
sg17
g18
sg19
g20
sS'*'
g21
sg22
g23
sg24
g23
sg25
g26
sg27
g23
ssg28
S'Owen11CaBasedDivisionRule'
p339
sg30
I00
sg31
I00
sg32
Nsg33
g284
sg35
I01
sg36
I01
sg37
I00
sg38
Nsg39
g107
sg40
Nsg41
Nsg42
I00
sg43
S'/home/grogan/Chaste/projects/MicrovesselChaste/src/population/cell/Owen11CaBasedDivisionRule.hpp'
p340
sg44
I00
sba(iwrapper_utilities.class_data
CppClass
p341
(dp342
g4
Nsg5
(dp343
g7
g8
sg9
g10
sg11
g12
sg13
g14
sg15
g16
sg17
g18
sg19
g20
sS'*'
g21
sg22
g23
sg24
g23
sg25
g26
sg27
g23
ssg28
S'Owen11CaUpdateRule'
p344
sg30
I00
sg31
I00
sg32
Nsg33
g284
sg35
I01
sg36
I01
sg37
I00
sg38
Nsg39
g107
sg40
Nsg41
Nsg42
I00
sg43
S'/home/grogan/Chaste/projects/MicrovesselChaste/src/population/cell/Owen11CaUpdateRule.hpp'
p345
sg44
I00
sba(iwrapper_utilities.class_data
CppClass
p346
(dp347
g4
Nsg5
(dp348
g7
g8
sg9
g10
sg11
g12
sg13
g14
sg15
g16
sg17
g18
sg19
g20
sS'*'
g21
sg22
g23
sg24
g23
sg25
g26
sg27
g23
ssg28
S'TipAttractionLatticeBasedMigrationRule'
p349
sg30
I00
sg31
I00
sg32
Nsg33
S'angiogenesis'
p350
sg35
I01
sg36
I01
sg37
I00
sg38
Nsg39
g107
sg40
Nsg41
Nsg42
I00
sg43
S'/home/grogan/Chaste/projects/MicrovesselChaste/src/simulation/angiogenesis/migration_rules/lattice/TipAttractionLatticeBasedMigrationRule.hpp'
p351
sg44
I00
sba(iwrapper_utilities.class_data
CppClass
p352
(dp353
g4
Nsg5
(dp354
g7
g8
sg9
g10
sg11
g12
sg13
g14
sg15
g16
sg17
g18
sg19
g20
sS'*'
g21
sg22
g23
sg24
g23
sg25
g26
sg27
g23
ssg28
S'AngiogenesisSolver'
p355
sg30
I00
sg31
I00
sg32
Nsg33
g350
sg35
I01
sg36
I01
sg37
I00
sg38
Nsg39
g107
sg40
Nsg41
Nsg42
I00
sg43
S'/home/grogan/Chaste/projects/MicrovesselChaste/src/simulation/angiogenesis/AngiogenesisSolver.hpp'
p356
sg44
I00
sba(iwrapper_utilities.class_data
CppClass
p357
(dp358
g4
Nsg5
(dp359
g7
g8
sg9
g10
sg11
g12
sg13
g14
sg15
g16
sg17
g18
sg19
g20
sS'*'
g21
sg22
g23
sg24
g23
sg25
g26
sg27
g23
ssg28
S'Owen2011MigrationRule'
p360
sg30
I00
sg31
I00
sg32
Nsg33
g350
sg35
I01
sg36
I01
sg37
I00
sg38
Nsg39
g107
sg40
Nsg41
Nsg42
I00
sg43
S'/home/grogan/Chaste/projects/MicrovesselChaste/src/simulation/angiogenesis/migration_rules/lattice/Owen2011MigrationRule.hpp'
p361
sg44
I00
sba(iwrapper_utilities.class_data
CppClass
p362
(dp363
g4
Nsg5
(dp364
g7
g8
sg9
g10
sg11
g12
sg13
g14
sg15
g16
sg17
g18
sg19
g20
sS'*'
g21
sg22
g23
sg24
g23
sg25
g26
sg27
g23
ssg28
S'Owen2011SproutingRule'
p365
sg30
I00
sg31
I00
sg32
Nsg33
g350
sg35
I01
sg36
I01
sg37
I00
sg38
Nsg39
g107
sg40
Nsg41
Nsg42
I00
sg43
S'/home/grogan/Chaste/projects/MicrovesselChaste/src/simulation/angiogenesis/sprouting_rules/Owen2011SproutingRule.hpp'
p366
sg44
I00
sba(iwrapper_utilities.class_data
CppClass
p367
(dp368
g4
Nsg5
(dp369
g7
g8
sg9
g10
sg11
g12
sg13
g14
sg15
g16
sg17
g18
sg19
g20
sS'*'
g21
sg22
g23
sg24
g23
sg25
g26
sg27
g23
ssg28
S'OffLatticeMigrationRule'
p370
sg30
I00
sg31
I00
sg32
Nsg33
g350
sg35
I01
sg36
I01
sg37
I00
sg38
Nsg39
g107
sg40
Nsg41
Nsg42
I00
sg43
S'/home/grogan/Chaste/projects/MicrovesselChaste/src/simulation/angiogenesis/migration_rules/off_lattice/OffLatticeMigrationRule.hpp'
p371
sg44
I00
sba(iwrapper_utilities.class_data
CppClass
p372
(dp373
g4
Nsg5
(dp374
g7
g8
sg9
g10
sg11
g12
sg13
g14
sg15
g16
sg17
g18
sg19
g20
sS'*'
g21
sg22
g23
sg24
g23
sg25
g26
sg27
g23
ssg28
S'OffLatticeSproutingRule'
p375
sg30
I00
sg31
I00
sg32
Nsg33
g350
sg35
I01
sg36
I01
sg37
I00
sg38
Nsg39
g107
sg40
Nsg41
Nsg42
I00
sg43
S'/home/grogan/Chaste/projects/MicrovesselChaste/src/simulation/angiogenesis/sprouting_rules/OffLatticeSproutingRule.hpp'
p376
sg44
I00
sba(iwrapper_utilities.class_data
CppClass
p377
(dp378
g4
Nsg5
(dp379
g7
g8
sg9
g10
sg11
g12
sg13
g14
sg15
g16
sg17
g18
sg19
g20
sS'*'
g21
sg22
g23
sg24
g23
sg25
g26
sg27
g23
ssg28
S'AbstractMigrationRule'
p380
sg30
I00
sg31
I00
sg32
Nsg33
g350
sg35
I01
sg36
I01
sg37
I00
sg38
Nsg39
g107
sg40
Nsg41
Nsg42
I00
sg43
S'/home/grogan/Chaste/projects/MicrovesselChaste/src/simulation/angiogenesis/migration_rules/AbstractMigrationRule.hpp'
p381
sg44
I00
sba(iwrapper_utilities.class_data
CppClass
p382
(dp383
g4
Nsg5
(dp384
g7
g8
sg9
g10
sg11
g12
sg13
g14
sg15
g16
sg17
g18
sg19
g20
sS'*'
g21
sg22
g23
sg24
g23
sg25
g26
sg27
g23
ssg28
S'AbstractSproutingRule'
p385
sg30
I00
sg31
I00
sg32
Nsg33
g350
sg35
I01
sg36
I01
sg37
I00
sg38
Nsg39
g107
sg40
Nsg41
Nsg42
I00
sg43
S'/home/grogan/Chaste/projects/MicrovesselChaste/src/simulation/angiogenesis/sprouting_rules/AbstractSproutingRule.hpp'
p386
sg44
I00
sba(iwrapper_utilities.class_data
CppClass
p387
(dp388
g4
Nsg5
(dp389
g7
g8
sg9
g10
sg11
g12
sg13
g14
sg15
g16
sg17
g18
sg19
g20
sS'*'
g21
sg22
g23
sg24
g23
sg25
g26
sg27
g23
ssg28
S'LatticeBasedMigrationRule'
p390
sg30
I00
sg31
I00
sg32
Nsg33
g350
sg35
I01
sg36
I01
sg37
I00
sg38
Nsg39
g107
sg40
Nsg41
Nsg42
I00
sg43
S'/home/grogan/Chaste/projects/MicrovesselChaste/src/simulation/angiogenesis/migration_rules/lattice/LatticeBasedMigrationRule.hpp'
p391
sg44
I00
sba(iwrapper_utilities.class_data
CppClass
p392
(dp393
g4
Nsg5
(dp394
g7
g8
sg9
g10
sg11
g12
sg13
g14
sg15
g16
sg17
g18
sg19
g20
sS'*'
g21
sg22
g23
sg24
g23
sg25
g26
sg27
g23
ssg28
S'CellPopulationMigrationRule'
p395
sg30
I00
sg31
I00
sg32
Nsg33
g350
sg35
I01
sg36
I01
sg37
I00
sg38
Nsg39
g107
sg40
Nsg41
Nsg42
I00
sg43
S'/home/grogan/Chaste/projects/MicrovesselChaste/src/simulation/angiogenesis/migration_rules/lattice/CellPopulationMigrationRule.hpp'
p396
sg44
I00
sba(iwrapper_utilities.class_data
CppClass
p397
(dp398
g4
Nsg5
(dp399
g7
g8
sg9
g10
sg11
g12
sg13
g14
sg15
g16
sg17
g18
sg19
g20
sS'*'
g21
sg22
g23
sg24
g23
sg25
g26
sg27
g23
ssg28
S'RegressionSolver'
p400
sg30
I00
sg31
I00
sg32
Nsg33
g350
sg35
I01
sg36
I01
sg37
I00
sg38
Nsg39
g107
sg40
Nsg41
Nsg42
I00
sg43
S'/home/grogan/Chaste/projects/MicrovesselChaste/src/simulation/angiogenesis/regression/RegressionSolver.hpp'
p401
sg44
I00
sba(iwrapper_utilities.class_data
CppClass
p402
(dp403
g4
Nsg5
(dp404
g7
g8
sg9
g10
sg11
g12
sg13
g14
sg15
g16
sg17
g18
sg19
g20
sS'*'
g21
sg22
g23
sg24
g23
sg25
g26
sg27
g23
ssg28
S'WallShearStressBasedRegressionSolver'
p405
sg30
I00
sg31
I00
sg32
Nsg33
g350
sg35
I01
sg36
I01
sg37
I00
sg38
Nsg39
g107
sg40
Nsg41
Nsg42
I00
sg43
S'/home/grogan/Chaste/projects/MicrovesselChaste/src/simulation/angiogenesis/regression/WallShearStressBasedRegressionSolver.hpp'
p406
sg44
I00
sba(iwrapper_utilities.class_data
CppClass
p407
(dp408
g4
Nsg5
(dp409
g7
g8
sg9
g10
sg11
g12
sg13
g14
sg15
g16
sg17
g18
sg19
g20
sS'*'
g21
sg22
g23
sg24
g23
sg25
g26
sg27
g23
ssg28
S'LatticeBasedSproutingRule'
p410
sg30
I00
sg31
I00
sg32
Nsg33
g350
sg35
I01
sg36
I01
sg37
I00
sg38
Nsg39
g107
sg40
Nsg41
Nsg42
I00
sg43
S'/home/grogan/Chaste/projects/MicrovesselChaste/src/simulation/angiogenesis/sprouting_rules/LatticeBasedSproutingRule.hpp'
p411
sg44
I00
sba(iwrapper_utilities.class_data
CppClass
p412
(dp413
g4
Nsg5
(dp414
g7
g8
sg9
g10
sg11
g12
sg13
g14
sg15
g16
sg17
g18
sg19
g20
sS'*'
g21
sg22
g23
sg24
g23
sg25
g26
sg27
g23
ssg28
S'DiscreteContinuumBoundaryCondition'
p415
sg30
I00
sg31
I00
sg32
Nsg33
S'pde'
p416
sg35
I01
sg36
I01
sg37
I00
sg38
Nsg39
g107
sg40
Nsg41
Nsg42
I00
sg43
S'/home/grogan/Chaste/projects/MicrovesselChaste/src/pde/boundary_conditions/DiscreteContinuumBoundaryCondition.hpp'
p417
sg44
I00
sba(iwrapper_utilities.class_data
CppClass
p418
(dp419
g4
Nsg5
(dp420
g7
g8
sg9
g10
sg11
g12
sg13
g14
sg15
g16
sg17
g18
sg19
g20
sS'*'
g21
sg22
g23
sg24
g23
sg25
g26
sg27
g23
ssg28
S'BoundaryConditionType'
p421
sg30
I00
sg31
I00
sg32
Nsg33
g416
sg35
I00
sg36
I01
sg37
I00
sg38
Nsg39
Nsg40
Nsg41
Nsg42
I00
sg43
Nsg44
I00
sba(iwrapper_utilities.class_data
CppClass
p422
(dp423
g4
Nsg5
(dp424
g7
g8
sg9
g10
sg11
g12
sg13
g14
sg15
g16
sg17
g18
sg19
g20
sS'*'
g21
sg22
g23
sg24
g23
sg25
g26
sg27
g23
ssg28
S'BoundaryConditionSource'
p425
sg30
I00
sg31
I00
sg32
Nsg33
g416
sg35
I00
sg36
I01
sg37
I00
sg38
Nsg39
Nsg40
Nsg41
Nsg42
I00
sg43
Nsg44
I00
sba(iwrapper_utilities.class_data
CppClass
p426
(dp427
g4
Nsg5
(dp428
g7
g8
sg9
g10
sg11
g12
sg13
g14
sg15
g16
sg17
g18
sg19
g20
sS'*'
g21
sg22
g23
sg24
g23
sg25
g26
sg27
g23
ssg28
S'DiscreteSource'
p429
sg30
I00
sg31
I00
sg32
Nsg33
g416
sg35
I01
sg36
I01
sg37
I00
sg38
Nsg39
g107
sg40
Nsg41
Nsg42
I01
sg43
S'/home/grogan/Chaste/projects/MicrovesselChaste/src/pde/discrete_sources/DiscreteSource.hpp'
p430
sg44
I00
sba(iwrapper_utilities.class_data
CppClass
p431
(dp432
g4
Nsg5
(dp433
g7
g8
sg9
g10
sg11
g12
sg13
g14
sg15
g16
sg17
g18
sg19
g20
sS'*'
g21
sg22
g23
sg24
g23
sg25
g26
sg27
g23
ssg28
S'CellStateDependentDiscreteSource'
p434
sg30
I00
sg31
I00
sg32
Nsg33
g416
sg35
I01
sg36
I01
sg37
I00
sg38
Nsg39
g107
sg40
Nsg41
Nsg42
I00
sg43
S'/home/grogan/Chaste/projects/MicrovesselChaste/src/pde/discrete_sources/CellStateDependentDiscreteSource.hpp'
p435
sg44
I00
sba(iwrapper_utilities.class_data
CppClass
p436
(dp437
g4
Nsg5
(dp438
g7
g8
sg9
g10
sg11
g12
sg13
g14
sg15
g16
sg17
g18
sg19
g20
sS'*'
g21
sg22
g23
sg24
g23
sg25
g26
sg27
g23
ssg28
S'CellBasedDiscreteSource'
p439
sg30
I00
sg31
I00
sg32
Nsg33
g416
sg35
I01
sg36
I01
sg37
I00
sg38
Nsg39
g107
sg40
Nsg41
Nsg42
I00
sg43
S'/home/grogan/Chaste/projects/MicrovesselChaste/src/pde/discrete_sources/CellBasedDiscreteSource.hpp'
p440
sg44
I00
sba(iwrapper_utilities.class_data
CppClass
p441
(dp442
g4
Nsg5
(dp443
g7
g8
sg9
g10
sg11
g12
sg13
g14
sg15
g16
sg17
g18
sg19
g20
sS'*'
g21
sg22
g23
sg24
g23
sg25
g26
sg27
g23
ssg28
S'SolutionDependentDiscreteSource'
p444
sg30
I00
sg31
I00
sg32
Nsg33
g416
sg35
I01
sg36
I01
sg37
I00
sg38
Nsg39
g107
sg40
Nsg41
Nsg42
I00
sg43
S'/home/grogan/Chaste/projects/MicrovesselChaste/src/pde/discrete_sources/SolutionDependentDiscreteSource.hpp'
p445
sg44
I00
sba(iwrapper_utilities.class_data
CppClass
p446
(dp447
g4
Nsg5
(dp448
g7
g8
sg9
g10
sg11
g12
sg13
g14
sg15
g16
sg17
g18
sg19
g20
sS'*'
g21
sg22
g23
sg24
g23
sg25
g26
sg27
g23
ssg28
S'VesselBasedDiscreteSource'
p449
sg30
I00
sg31
I00
sg32
Nsg33
g416
sg35
I01
sg36
I01
sg37
I00
sg38
Nsg39
g107
sg40
Nsg41
Nsg42
I00
sg43
S'/home/grogan/Chaste/projects/MicrovesselChaste/src/pde/discrete_sources/VesselBasedDiscreteSource.hpp'
p450
sg44
I00
sba(iwrapper_utilities.class_data
CppClass
p451
(dp452
g4
Nsg5
(dp453
g7
g8
sg9
g10
sg11
g12
sg13
g14
sg15
g16
sg17
g18
sg19
g20
sS'*'
g21
sg22
g23
sg24
g23
sg25
g26
sg27
g23
ssg28
S'AbstractDiscreteContinuumPde'
p454
sg30
I00
sg31
I00
sg32
Nsg33
g416
sg35
I01
sg36
I01
sg37
I00
sg38
Nsg39
g175
sg40
Nsg41
Nsg42
I00
sg43
S'/home/grogan/Chaste/projects/MicrovesselChaste/src/pde/problem/AbstractDiscreteContinuumPde.hpp'
p455
sg44
I00
sba(iwrapper_utilities.class_data
CppClass
p456
(dp457
g4
Nsg5
(dp458
g7
g8
sg9
g10
sg11
g12
sg13
g14
sg15
g16
sg17
g18
sg19
g20
sS'*'
g21
sg22
g23
sg24
g23
sg25
g26
sg27
g23
ssg28
S'AbstractDiscreteContinuumLinearEllipticPde'
p459
sg30
I00
sg31
I00
sg32
Nsg33
g416
sg35
I01
sg36
I01
sg37
I00
sg38
Nsg39
g175
sg40
Nsg41
Nsg42
I00
sg43
S'/home/grogan/Chaste/projects/MicrovesselChaste/src/pde/problem/linear_elliptic/AbstractDiscreteContinuumLinearEllipticPde.hpp'
p460
sg44
I00
sba(iwrapper_utilities.class_data
CppClass
p461
(dp462
g4
Nsg5
(dp463
g7
g8
sg9
g10
sg11
g12
sg13
g14
sg15
g16
sg17
g18
sg19
g20
sS'*'
g21
sg22
g23
sg24
g23
sg25
g26
sg27
g23
ssg28
S'DiscreteContinuumLinearEllipticPde'
p464
sg30
I00
sg31
I00
sg32
Nsg33
g416
sg35
I01
sg36
I01
sg37
I00
sg38
Nsg39
g175
sg40
Nsg41
Nsg42
I00
sg43
S'/home/grogan/Chaste/projects/MicrovesselChaste/src/pde/problem/linear_elliptic/DiscreteContinuumLinearEllipticPde.hpp'
p465
sg44
I00
sba(iwrapper_utilities.class_data
CppClass
p466
(dp467
g4
Nsg5
(dp468
g7
g8
sg9
g10
sg11
g12
sg13
g14
sg15
g16
sg17
g18
sg19
g20
sS'*'
g21
sg22
g23
sg24
g23
sg25
g26
sg27
g23
ssg28
S'AbstractDiscreteContinuumNonLinearEllipticPde'
p469
sg30
I00
sg31
I00
sg32
Nsg33
g416
sg35
I01
sg36
I01
sg37
I00
sg38
Nsg39
g175
sg40
Nsg41
Nsg42
I00
sg43
S'/home/grogan/Chaste/projects/MicrovesselChaste/src/pde/problem/nonlinear_elliptic/AbstractDiscreteContinuumNonLinearEllipticPde.hpp'
p470
sg44
I00
sba(iwrapper_utilities.class_data
CppClass
p471
(dp472
g4
Nsg5
(dp473
g7
g8
sg9
g10
sg11
g12
sg13
g14
sg15
g16
sg17
g18
sg19
g20
sS'*'
g21
sg22
g23
sg24
g23
sg25
g26
sg27
g23
ssg28
S'MichaelisMentenSteadyStateDiffusionReactionPde'
p474
sg30
I00
sg31
I00
sg32
Nsg33
g416
sg35
I01
sg36
I01
sg37
I00
sg38
Nsg39
g175
sg40
Nsg41
Nsg42
I00
sg43
S'/home/grogan/Chaste/projects/MicrovesselChaste/src/pde/problem/nonlinear_elliptic/MichaelisMentenSteadyStateDiffusionReactionPde.hpp'
p475
sg44
I00
sba(iwrapper_utilities.class_data
CppClass
p476
(dp477
g4
Nsg5
(dp478
g7
g8
sg9
g10
sg11
g12
sg13
g14
sg15
g16
sg17
g18
sg19
g20
sS'*'
g21
sg22
g23
sg24
g23
sg25
g26
sg27
g23
ssg28
S'AbstractDiscreteContinuumParabolicPde'
p479
sg30
I00
sg31
I00
sg32
Nsg33
g416
sg35
I01
sg36
I01
sg37
I00
sg38
Nsg39
g175
sg40
Nsg41
Nsg42
I00
sg43
S'/home/grogan/Chaste/projects/MicrovesselChaste/src/pde/problem/parabolic/AbstractDiscreteContinuumParabolicPde.hpp'
p480
sg44
I00
sba(iwrapper_utilities.class_data
CppClass
p481
(dp482
g4
Nsg5
(dp483
g7
g8
sg9
g10
sg11
g12
sg13
g14
sg15
g16
sg17
g18
sg19
g20
sS'*'
g21
sg22
g23
sg24
g23
sg25
g26
sg27
g23
ssg28
S'ParabolicDiffusionReactionPde'
p484
sg30
I00
sg31
I00
sg32
Nsg33
g416
sg35
I01
sg36
I01
sg37
I00
sg38
Nsg39
g175
sg40
Nsg41
Nsg42
I00
sg43
S'/home/grogan/Chaste/projects/MicrovesselChaste/src/pde/problem/parabolic/ParabolicDiffusionReactionPde.hpp'
p485
sg44
I00
sba(iwrapper_utilities.class_data
CppClass
p486
(dp487
g4
Nsg5
(dp488
g7
g8
sg9
g10
sg11
g12
sg13
g14
sg15
g16
sg17
g18
sg19
g20
sS'*'
g21
sg22
g23
sg24
g23
sg25
g26
sg27
g23
ssg28
S'CoupledVegfPelletDiffusionReactionPde'
p489
sg30
I00
sg31
I00
sg32
Nsg33
g416
sg35
I01
sg36
I01
sg37
I00
sg38
Nsg39
g175
sg40
Nsg41
Nsg42
I00
sg43
S'/home/grogan/Chaste/projects/MicrovesselChaste/src/pde/problem/parabolic/CoupledVegfPelletDiffusionReactionPde.hpp'
p490
sg44
I00
sba(iwrapper_utilities.class_data
CppClass
p491
(dp492
g4
Nsg5
(dp493
g7
g8
sg9
g10
sg11
g12
sg13
g14
sg15
g16
sg17
g18
sg19
g20
sS'*'
g21
sg22
g23
sg24
g23
sg25
g26
sg27
g23
ssg28
S'AbstractDiscreteContinuumSolver'
p494
sg30
I00
sg31
I00
sg32
Nsg33
g416
sg35
I01
sg36
I01
sg37
I00
sg38
Nsg39
g107
sg40
Nsg41
Nsg42
I01
sg43
S'/home/grogan/Chaste/projects/MicrovesselChaste/src/pde/solvers/AbstractDiscreteContinuumSolver.hpp'
p495
sg44
I00
sba(iwrapper_utilities.class_data
CppClass
p496
(dp497
g4
Nsg5
(dp498
g7
g8
sg9
g10
sg11
g12
sg13
g14
sg15
g16
sg17
g18
sg19
g20
sS'*'
g21
sg22
g23
sg24
g23
sg25
g26
sg27
g23
ssg28
S'AbstractRegularGridDiscreteContinuumSolver'
p499
sg30
I00
sg31
I00
sg32
Nsg33
g416
sg35
I01
sg36
I01
sg37
I00
sg38
Nsg39
g107
sg40
Nsg41
Nsg42
I00
sg43
S'/home/grogan/Chaste/projects/MicrovesselChaste/src/pde/solvers/AbstractRegularGridDiscreteContinuumSolver.hpp'
p500
sg44
I00
sba(iwrapper_utilities.class_data
CppClass
p501
(dp502
g4
Nsg5
(dp503
g7
g8
sg9
g10
sg11
g12
sg13
g14
sg15
g16
sg17
g18
sg19
g20
sS'*'
g21
sg22
g23
sg24
g23
sg25
g26
sg27
g23
ssg28
S'AbstractUnstructuredGridDiscreteContinuumSolver'
p504
sg30
I00
sg31
I00
sg32
Nsg33
g416
sg35
I01
sg36
I01
sg37
I00
sg38
Nsg39
g107
sg40
Nsg41
Nsg42
I00
sg43
S'/home/grogan/Chaste/projects/MicrovesselChaste/src/pde/solvers/AbstractUnstructuredGridDiscreteContinuumSolver.hpp'
p505
sg44
I00
sba(iwrapper_utilities.class_data
CppClass
p506
(dp507
g4
Nsg5
(dp508
g7
g8
sg9
g10
sg11
g12
sg13
g14
sg15
g16
sg17
g18
sg19
g20
sS'*'
g21
sg22
g23
sg24
g23
sg25
g26
sg27
g23
ssg28
S'AbstractMixedGridDiscreteContinuumSolver'
p509
sg30
I00
sg31
I00
sg32
Nsg33
g416
sg35
I01
sg36
I01
sg37
I00
sg38
Nsg39
g107
sg40
Nsg41
Nsg42
I00
sg43
S'/home/grogan/Chaste/projects/MicrovesselChaste/src/pde/solvers/AbstractMixedGridDiscreteContinuumSolver.hpp'
p510
sg44
I00
sba(iwrapper_utilities.class_data
CppClass
p511
(dp512
g4
Nsg5
(dp513
g7
g8
sg9
g10
sg11
g12
sg13
g14
sg15
g16
sg17
g18
sg19
g20
sS'*'
g21
sg22
g23
sg24
g23
sg25
g26
sg27
g23
ssg28
S'AbstractFiniteDifferenceSolverBase'
p514
sg30
I00
sg31
I00
sg32
Nsg33
g416
sg35
I01
sg36
I01
sg37
I00
sg38
Nsg39
g107
sg40
Nsg41
Nsg42
I00
sg43
S'/home/grogan/Chaste/projects/MicrovesselChaste/src/pde/solvers/finite_difference/AbstractFiniteDifferenceSolverBase.hpp'
p515
sg44
I00
sba(iwrapper_utilities.class_data
CppClass
p516
(dp517
g4
Nsg5
(dp518
g7
g8
sg9
g10
sg11
g12
sg13
g14
sg15
g16
sg17
g18
sg19
g20
sS'*'
g21
sg22
g23
sg24
g23
sg25
g26
sg27
g23
ssg28
S'CoupledLumpedSystemFiniteDifferenceSolver'
p519
sg30
I00
sg31
I00
sg32
Nsg33
g416
sg35
I01
sg36
I01
sg37
I00
sg38
Nsg39
g107
sg40
Nsg41
Nsg42
I00
sg43
S'/home/grogan/Chaste/projects/MicrovesselChaste/src/pde/solvers/finite_difference/CoupledLumpedSystemFiniteDifferenceSolver.hpp'
p520
sg44
I00
sba(iwrapper_utilities.class_data
CppClass
p521
(dp522
g4
Nsg5
(dp523
g7
g8
sg9
g10
sg11
g12
sg13
g14
sg15
g16
sg17
g18
sg19
g20
sS'*'
g21
sg22
g23
sg24
g23
sg25
g26
sg27
g23
ssg28
S'SimpleLinearEllipticFiniteDifferenceSolver'
p524
sg30
I00
sg31
I00
sg32
Nsg33
g416
sg35
I01
sg36
I01
sg37
I00
sg38
Nsg39
g107
sg40
Nsg41
Nsg42
I00
sg43
S'/home/grogan/Chaste/projects/MicrovesselChaste/src/pde/solvers/finite_difference/SimpleLinearEllipticFiniteDifferenceSolver.hpp'
p525
sg44
I00
sba(iwrapper_utilities.class_data
CppClass
p526
(dp527
g4
Nsg5
(dp528
g7
g8
sg9
g10
sg11
g12
sg13
g14
sg15
g16
sg17
g18
sg19
g20
sS'*'
g21
sg22
g23
sg24
g23
sg25
g26
sg27
g23
ssg28
S'SimpleNonLinearEllipticFiniteDifferenceSolver'
p529
sg30
I00
sg31
I00
sg32
Nsg33
g416
sg35
I01
sg36
I01
sg37
I00
sg38
Nsg39
g107
sg40
Nsg41
Nsg42
I00
sg43
S'/home/grogan/Chaste/projects/MicrovesselChaste/src/pde/solvers/finite_difference/SimpleNonLinearEllipticFiniteDifferenceSolver.hpp'
p530
sg44
I00
sba(iwrapper_utilities.class_data
CppClass
p531
(dp532
g4
Nsg5
(dp533
g7
g8
sg9
g10
sg11
g12
sg13
g14
sg15
g16
sg17
g18
sg19
g20
sS'*'
g21
sg22
g23
sg24
g23
sg25
g26
sg27
g23
ssg28
S'AbstractFiniteElementSolverBase'
p534
sg30
I00
sg31
I00
sg32
Nsg33
g416
sg35
I01
sg36
I01
sg37
I00
sg38
Nsg39
g107
sg40
Nsg41
Nsg42
I00
sg43
S'/home/grogan/Chaste/projects/MicrovesselChaste/src/pde/solvers/finite_element/AbstractFiniteElementSolverBase.hpp'
p535
sg44
I00
sba(iwrapper_utilities.class_data
CppClass
p536
(dp537
g4
Nsg5
(dp538
g7
g8
sg9
g10
sg11
g12
sg13
g14
sg15
g16
sg17
g18
sg19
g20
sS'*'
g21
sg22
g23
sg24
g23
sg25
g26
sg27
g23
ssg28
S'CoupledLumpedSystemFiniteElementSolver'
p539
sg30
I00
sg31
I00
sg32
Nsg33
g416
sg35
I01
sg36
I01
sg37
I00
sg38
Nsg39
g107
sg40
Nsg41
Nsg42
I00
sg43
S'/home/grogan/Chaste/projects/MicrovesselChaste/src/pde/solvers/finite_element/CoupledLumpedSystemFiniteElementSolver.hpp'
p540
sg44
I00
sba(iwrapper_utilities.class_data
CppClass
p541
(dp542
g4
Nsg5
(dp543
g7
g8
sg9
g10
sg11
g12
sg13
g14
sg15
g16
sg17
g18
sg19
g20
sS'*'
g21
sg22
g23
sg24
g23
sg25
g26
sg27
g23
ssg28
S'SimpleLinearEllipticFiniteElementSolver'
p544
sg30
I00
sg31
I00
sg32
Nsg33
g416
sg35
I01
sg36
I01
sg37
I00
sg38
Nsg39
g107
sg40
Nsg41
Nsg42
I00
sg43
S'/home/grogan/Chaste/projects/MicrovesselChaste/src/pde/solvers/finite_element/SimpleLinearEllipticFiniteElementSolver.hpp'
p545
sg44
I00
sba(iwrapper_utilities.class_data
CppClass
p546
(dp547
g4
Nsg5
(dp548
g7
g8
sg9
g10
sg11
g12
sg13
g14
sg15
g16
sg17
g18
sg19
g20
sS'*'
g21
sg22
g23
sg24
g23
sg25
g26
sg27
g23
ssg28
S'SimpleNonLinearEllipticFiniteElementSolver'
p549
sg30
I00
sg31
I00
sg32
Nsg33
g416
sg35
I01
sg36
I01
sg37
I00
sg38
Nsg39
g107
sg40
Nsg41
Nsg42
I00
sg43
S'/home/grogan/Chaste/projects/MicrovesselChaste/src/pde/solvers/finite_element/SimpleNonLinearEllipticFiniteElementSolver.hpp'
p550
sg44
I00
sba(iwrapper_utilities.class_data
CppClass
p551
(dp552
g4
Nsg5
(dp553
g7
g8
sg9
g10
sg11
g12
sg13
g14
sg15
g16
sg17
g18
sg19
g20
sS'*'
g21
sg22
g23
sg24
g23
sg25
g26
sg27
g23
ssg28
S'SimpleParabolicFiniteElementSolver'
p554
sg30
I00
sg31
I00
sg32
Nsg33
g416
sg35
I01
sg36
I01
sg37
I00
sg38
Nsg39
g107
sg40
Nsg41
Nsg42
I00
sg43
S'/home/grogan/Chaste/projects/MicrovesselChaste/src/pde/solvers/finite_element/SimpleParabolicFiniteElementSolver.hpp'
p555
sg44
I00
sba(iwrapper_utilities.class_data
CppClass
p556
(dp557
g4
Nsg5
(dp558
g7
g8
sg9
g10
sg11
g12
sg13
g14
sg15
g16
sg17
g18
sg19
g20
sS'*'
g21
sg22
g23
sg24
g23
sg25
g26
sg27
g23
ssg28
S'SimpleParabolicFiniteDifferenceSolver'
p559
sg30
I00
sg31
I00
sg32
Nsg33
g416
sg35
I01
sg36
I01
sg37
I00
sg38
Nsg39
g107
sg40
Nsg41
Nsg42
I00
sg43
S'/home/grogan/Chaste/projects/MicrovesselChaste/src/pde/solvers/finite_difference/SimpleParabolicFiniteDifferenceSolver.hpp'
p560
sg44
I00
sba(iwrapper_utilities.class_data
CppClass
p561
(dp562
g4
Nsg5
(dp563
g7
g8
sg9
g10
sg11
g12
sg13
g14
sg15
g16
sg17
g18
sg19
g20
sS'*'
g21
sg22
g23
sg24
g23
sg25
g26
sg27
g23
ssg28
S'FunctionMap'
p564
sg30
I00
sg31
I00
sg32
Nsg33
g416
sg35
I01
sg36
I01
sg37
I00
sg38
Nsg39
g107
sg40
Nsg41
Nsg42
I00
sg43
S'/home/grogan/Chaste/projects/MicrovesselChaste/src/pde/solvers/FunctionMap.hpp'
p565
sg44
I00
sba(iwrapper_utilities.class_data
CppClass
p566
(dp567
g4
Nsg5
(dp568
g7
g8
sg9
g10
sg11
g12
sg13
g14
sg15
g16
sg17
g18
sg19
g20
sS'*'
g21
sg22
g23
sg24
g23
sg25
g26
sg27
g23
ssg28
S'DensityMap'
p569
sg30
I00
sg31
I00
sg32
Nsg33
g416
sg35
I01
sg36
I01
sg37
I00
sg38
Nsg39
g107
sg40
Nsg41
Nsg42
I00
sg43
S'/home/grogan/Chaste/projects/MicrovesselChaste/src/pde/solvers/DensityMap.hpp'
p570
sg44
I00
sba(iwrapper_utilities.class_data
CppClass
p571
(dp572
g4
Nsg5
(dp573
g7
g8
sg9
g10
sg11
g12
sg13
g14
sg15
g16
sg17
g18
sg19
g20
sS'*'
g21
sg22
g23
sg24
g23
sg25
g26
sg27
g23
ssg28
S'FlowSolver'
p574
sg30
I00
sg31
I00
sg32
Nsg33
S'flow'
p575
sg35
I01
sg36
I01
sg37
I00
sg38
Nsg39
g107
sg40
Nsg41
Nsg42
I00
sg43
S'/home/grogan/Chaste/projects/MicrovesselChaste/src/simulation/flow/FlowSolver.hpp'
p576
sg44
I00
sba(iwrapper_utilities.class_data
CppClass
p577
(dp578
g4
Nsg5
(dp579
g7
g8
sg9
g10
sg11
g12
sg13
g14
sg15
g16
sg17
g18
sg19
g20
sS'*'
g21
sg22
g23
sg24
g23
sg25
g26
sg27
g23
ssg28
S'WallShearStressCalculator'
p580
sg30
I00
sg31
I00
sg32
Nsg33
Nsg35
I01
sg36
I01
sg37
I00
sg38
Nsg39
Nsg40
Nsg41
Nsg42
I00
sg43
Nsg44
I00
sba(iwrapper_utilities.class_data
CppClass
p581
(dp582
g4
Nsg5
(dp583
g7
g8
sg9
g10
sg11
g12
sg13
g14
sg15
g16
sg17
g18
sg19
g20
sS'*'
g21
sg22
g23
sg24
g23
sg25
g26
sg27
g23
ssg28
S'VesselImpedanceCalculator'
p584
sg30
I00
sg31
I00
sg32
Nsg33
g575
sg35
I01
sg36
I01
sg37
I00
sg38
Nsg39
g107
sg40
Nsg41
Nsg42
I00
sg43
S'/home/grogan/Chaste/projects/MicrovesselChaste/src/simulation/flow/calculators/VesselImpedanceCalculator.hpp'
p585
sg44
I00
sba(iwrapper_utilities.class_data
CppClass
p586
(dp587
g4
Nsg5
(dp588
g7
g8
sg9
g10
sg11
g12
sg13
g14
sg15
g16
sg17
g18
sg19
g20
sS'*'
g21
sg22
g23
sg24
g23
sg25
g26
sg27
g23
ssg28
S'BetteridgeHaematocritSolver'
p589
sg30
I00
sg31
I00
sg32
Nsg33
g575
sg35
I01
sg36
I01
sg37
I00
sg38
Nsg39
g107
sg40
Nsg41
Nsg42
I00
sg43
S'/home/grogan/Chaste/projects/MicrovesselChaste/src/simulation/flow/calculators/haematocrit/BetteridgeHaematocritSolver.hpp'
p590
sg44
I00
sba(iwrapper_utilities.class_data
CppClass
p591
(dp592
g4
Nsg5
(dp593
g7
g8
sg9
g10
sg11
g12
sg13
g14
sg15
g16
sg17
g18
sg19
g20
sS'*'
g21
sg22
g23
sg24
g23
sg25
g26
sg27
g23
ssg28
S'AbstractVesselNetworkCalculator'
p594
sg30
I00
sg31
I00
sg32
Nsg33
g575
sg35
I01
sg36
I01
sg37
I00
sg38
Nsg39
g107
sg40
Nsg41
Nsg42
I00
sg43
S'/home/grogan/Chaste/projects/MicrovesselChaste/src/simulation/flow/calculators/AbstractVesselNetworkCalculator.hpp'
p595
sg44
I00
sba(iwrapper_utilities.class_data
CppClass
p596
(dp597
g4
Nsg5
(dp598
g7
g8
sg9
g10
sg11
g12
sg13
g14
sg15
g16
sg17
g18
sg19
g20
sS'*'
g21
sg22
g23
sg24
g23
sg25
g26
sg27
g23
ssg28
S'MechanicalStimulusCalculator'
p599
sg30
I00
sg31
I00
sg32
Nsg33
g575
sg35
I01
sg36
I01
sg37
I00
sg38
Nsg39
g107
sg40
Nsg41
Nsg42
I00
sg43
S'/home/grogan/Chaste/projects/MicrovesselChaste/src/simulation/flow/calculators/MechanicalStimulusCalculator.hpp'
p600
sg44
I00
sba(iwrapper_utilities.class_data
CppClass
p601
(dp602
g4
Nsg5
(dp603
g7
g8
sg9
g10
sg11
g12
sg13
g14
sg15
g16
sg17
g18
sg19
g20
sS'*'
g21
sg22
g23
sg24
g23
sg25
g26
sg27
g23
ssg28
S'MetabolicStimulusCalculator'
p604
sg30
I00
sg31
I00
sg32
Nsg33
g575
sg35
I01
sg36
I01
sg37
I00
sg38
Nsg39
g107
sg40
Nsg41
Nsg42
I00
sg43
S'/home/grogan/Chaste/projects/MicrovesselChaste/src/simulation/flow/calculators/MetabolicStimulusCalculator.hpp'
p605
sg44
I00
sba(iwrapper_utilities.class_data
CppClass
p606
(dp607
g4
Nsg5
(dp608
g7
g8
sg9
g10
sg11
g12
sg13
g14
sg15
g16
sg17
g18
sg19
g20
sS'*'
g21
sg22
g23
sg24
g23
sg25
g26
sg27
g23
ssg28
S'RadiusCalculator'
p609
sg30
I00
sg31
I00
sg32
Nsg33
g575
sg35
I01
sg36
I01
sg37
I00
sg38
Nsg39
g107
sg40
Nsg41
Nsg42
I00
sg43
S'/home/grogan/Chaste/projects/MicrovesselChaste/src/simulation/flow/calculators/RadiusCalculator.hpp'
p610
sg44
I00
sba(iwrapper_utilities.class_data
CppClass
p611
(dp612
g4
Nsg5
(dp613
g7
g8
sg9
g10
sg11
g12
sg13
g14
sg15
g16
sg17
g18
sg19
g20
sS'*'
g21
sg22
g23
sg24
g23
sg25
g26
sg27
g23
ssg28
S'ShrinkingStimulusCalculator'
p614
sg30
I00
sg31
I00
sg32
Nsg33
g575
sg35
I01
sg36
I01
sg37
I00
sg38
Nsg39
g107
sg40
Nsg41
Nsg42
I00
sg43
S'/home/grogan/Chaste/projects/MicrovesselChaste/src/simulation/flow/calculators/ShrinkingStimulusCalculator.hpp'
p615
sg44
I00
sba(iwrapper_utilities.class_data
CppClass
p616
(dp617
g4
Nsg5
(dp618
g7
g8
sg9
g10
sg11
g12
sg13
g14
sg15
g16
sg17
g18
sg19
g20
sS'*'
g21
sg22
g23
sg24
g23
sg25
g26
sg27
g23
ssg28
S'ViscosityCalculator'
p619
sg30
I00
sg31
I00
sg32
Nsg33
g575
sg35
I01
sg36
I01
sg37
I00
sg38
Nsg39
g107
sg40
Nsg41
Nsg42
I00
sg43
S'/home/grogan/Chaste/projects/MicrovesselChaste/src/simulation/flow/calculators/ViscosityCalculator.hpp'
p620
sg44
I00
sba(iwrapper_utilities.class_data
CppClass
p621
(dp622
g4
Nsg5
(dp623
g7
g8
sg9
g10
sg11
g12
sg13
g14
sg15
g16
sg17
g18
sg19
g20
sS'*'
g21
sg22
g23
sg24
g23
sg25
g26
sg27
g23
ssg28
g580
sg30
I00
sg31
I00
sg32
Nsg33
g575
sg35
I01
sg36
I01
sg37
I00
sg38
Nsg39
g107
sg40
Nsg41
Nsg42
I00
sg43
S'/home/grogan/Chaste/projects/MicrovesselChaste/src/simulation/flow/calculators/WallShearStressCalculator.hpp'
p624
sg44
I00
sba(iwrapper_utilities.class_data
CppClass
p625
(dp626
g4
Nsg5
(dp627
g7
g8
sg9
g10
sg11
g12
sg13
g14
sg15
g16
sg17
g18
sg19
g20
sS'*'
g21
sg22
g23
sg24
g23
sg25
g26
sg27
g23
ssg28
S'AbstractStructuralAdaptationSolver'
p628
sg30
I00
sg31
I00
sg32
Nsg33
g575
sg35
I01
sg36
I01
sg37
I00
sg38
Nsg39
g107
sg40
Nsg41
Nsg42
I00
sg43
S'/home/grogan/Chaste/projects/MicrovesselChaste/src/simulation/flow/structural_adaptation/AbstractStructuralAdaptationSolver.hpp'
p629
sg44
I00
sba(iwrapper_utilities.class_data
CppClass
p630
(dp631
g4
Nsg5
(dp632
g7
g8
sg9
g10
sg11
g12
sg13
g14
sg15
g16
sg17
g18
sg19
g20
sS'*'
g21
sg22
g23
sg24
g23
sg25
g26
sg27
g23
ssg28
S'StructuralAdaptationSolver'
p633
sg30
I00
sg31
I00
sg32
Nsg33
g575
sg35
I01
sg36
I01
sg37
I00
sg38
Nsg39
g107
sg40
Nsg41
Nsg42
I00
sg43
S'/home/grogan/Chaste/projects/MicrovesselChaste/src/simulation/flow/structural_adaptation/StructuralAdaptationSolver.hpp'
p634
sg44
I00
sba(iwrapper_utilities.class_data
CppClass
p635
(dp636
g4
Nsg5
(dp637
g7
g8
sg9
g10
sg11
g12
sg13
g14
sg15
g16
sg17
g18
sg19
g20
sS'*'
g21
sg22
g23
sg24
g23
sg25
g26
sg27
g23
ssg28
S'AbstractHaematocritSolver'
p638
sg30
I00
sg31
I00
sg32
Nsg33
g575
sg35
I01
sg36
I01
sg37
I00
sg38
Nsg39
g107
sg40
Nsg41
Nsg42
I00
sg43
S'/home/grogan/Chaste/projects/MicrovesselChaste/src/simulation/flow/calculators/haematocrit/AbstractHaematocritSolver.hpp'
p639
sg44
I00
sba(iwrapper_utilities.class_data
CppClass
p640
(dp641
g4
Nsg5
(dp642
g7
g8
sg9
g10
sg11
g12
sg13
g14
sg15
g16
sg17
g18
sg19
g20
sS'*'
g21
sg22
g23
sg24
g23
sg25
g26
sg27
g23
ssg28
S'AlarconHaematocritSolver'
p643
sg30
I00
sg31
I00
sg32
Nsg33
g575
sg35
I01
sg36
I01
sg37
I00
sg38
Nsg39
g107
sg40
Nsg41
Nsg42
I00
sg43
S'/home/grogan/Chaste/projects/MicrovesselChaste/src/simulation/flow/calculators/haematocrit/AlarconHaematocritSolver.hpp'
p644
sg44
I00
sba(iwrapper_utilities.class_data
CppClass
p645
(dp646
g4
Nsg5
(dp647
g7
g8
sg9
g10
sg11
g12
sg13
g14
sg15
g16
sg17
g18
sg19
g20
sS'*'
g21
sg22
g23
sg24
g23
sg25
g26
sg27
g23
ssg28
S'ConstantHaematocritSolver'
p648
sg30
I00
sg31
I00
sg32
Nsg33
g575
sg35
I01
sg36
I01
sg37
I00
sg38
Nsg39
g107
sg40
Nsg41
Nsg42
I00
sg43
S'/home/grogan/Chaste/projects/MicrovesselChaste/src/simulation/flow/calculators/haematocrit/ConstantHaematocritSolver.hpp'
p649
sg44
I00
sba(iwrapper_utilities.class_data
CppClass
p650
(dp651
g4
Nsg5
(dp652
g7
g8
sg9
g10
sg11
g12
sg13
g14
sg15
g16
sg17
g18
sg19
g20
sS'*'
g21
sg22
g23
sg24
g23
sg25
g26
sg27
g23
ssg28
S'MicrovesselSolver'
p653
sg30
I00
sg31
I00
sg32
Nsg33
S'simulation'
p654
sg35
I01
sg36
I01
sg37
I00
sg38
Nsg39
g107
sg40
Nsg41
Nsg42
I00
sg43
S'/home/grogan/Chaste/projects/MicrovesselChaste/src/simulation/MicrovesselSolver.hpp'
p655
sg44
I00
sba(iwrapper_utilities.class_data
CppClass
p656
(dp657
g4
Nsg5
(dp658
g7
g8
sg9
g10
sg11
g12
sg13
g14
sg15
g16
sg17
g18
sg19
g20
sS'*'
g21
sg22
g23
sg24
g23
sg25
g26
sg27
g23
ssg28
S'MicrovesselSimulationModifier'
p659
sg30
I00
sg31
I00
sg32
Nsg33
g654
sg35
I01
sg36
I01
sg37
I00
sg38
Nsg39
g107
sg40
Nsg41
Nsg42
I00
sg43
S'/home/grogan/Chaste/projects/MicrovesselChaste/src/simulation/modifiers/MicrovesselSimulationModifier.hpp'
p660
sg44
I00
sba(iwrapper_utilities.class_data
CppClass
p661
(dp662
g4
Nsg5
(dp663
g7
g8
sg9
g10
sg11
g12
sg13
g14
sg15
g16
sg17
g18
sg19
g20
sS'*'
g21
sg22
g23
sg24
g23
sg25
g26
sg27
g23
ssg28
S'AbstractMicrovesselModifier'
p664
sg30
I00
sg31
I00
sg32
Nsg33
Nsg35
I01
sg36
I01
sg37
I00
sg38
Nsg39
Nsg40
Nsg41
Nsg42
I00
sg43
Nsg44
I00
sba(iwrapper_utilities.class_data
CppClass
p665
(dp666
g4
Nsg5
(dp667
g7
g8
sg9
g10
sg11
g12
sg13
g14
sg15
g16
sg17
g18
sg19
g20
sS'*'
g21
sg22
g23
sg24
g23
sg25
g26
sg27
g23
ssg28
S'VtkSceneMicrovesselModifier'
p668
sg30
I00
sg31
I00
sg32
Nsg33
Nsg35
I01
sg36
I01
sg37
I00
sg38
Nsg39
Nsg40
Nsg41
Nsg42
I00
sg43
Nsg44
I00
sba(iwrapper_utilities.class_data
CppClass
p669
(dp670
g4
Nsg5
(dp671
g7
g8
sg9
g10
sg11
g12
sg13
g14
sg15
g16
sg17
g18
sg19
g20
sS'*'
g21
sg22
g23
sg24
g23
sg25
g26
sg27
g23
ssg28
S'Owen2011TrackingModifier'
p672
sg30
I00
sg31
I00
sg32
Nsg33
Nsg35
I01
sg36
I01
sg37
I00
sg38
Nsg39
g107
sg40
Nsg41
Nsg42
I00
sg43
S'/home/grogan/Chaste/projects/MicrovesselChaste/src/ode/Owen2011TrackingModifier.hpp'
p673
sg44
I00
sba(iwrapper_utilities.class_data
CppClass
p674
(dp675
g4
Nsg5
(dp676
g7
g8
sg9
g10
sg11
g12
sg13
g14
sg15
g16
sg17
g18
sg19
g20
sS'*'
g21
sg22
g23
sg24
g23
sg25
g26
sg27
g23
ssg28
S'AbstractCellBasedSimulationModifier'
p677
sg30
I00
sg31
I00
sg32
Nsg33
g654
sg35
I01
sg36
I01
sg37
I00
sg38
Nsg39
g175
sg40
Nsg41
Nsg42
I00
sg43
S'/home/grogan/Chaste/cell_based/src/simulation/modifiers/AbstractCellBasedSimulationModifier.hpp'
p678
sg44
I00
sba(iwrapper_utilities.class_data
CppClass
p679
(dp680
g4
Nsg5
(dp681
g7
g8
sg9
g10
sg11
g12
sg13
g14
sg15
g16
sg17
g18
sg19
g20
sS'*'
g21
sg22
g23
sg24
g23
sg25
g26
sg27
g23
ssg28
S'CornealMicropocketSimulation'
p682
sg30
I00
sg31
I00
sg32
Nsg33
g654
sg35
I01
sg36
I01
sg37
I00
sg38
Nsg39
g107
sg40
Nsg41
Nsg42
I00
sg43
S'/home/grogan/Chaste/projects/MicrovesselChaste/src/simulation/examples/CornealMicropocketSimulation.hpp'
p683
sg44
I00
sba(iwrapper_utilities.class_data
CppClass
p684
(dp685
g4
Nsg5
(dp686
g7
g8
sg9
g10
sg11
g12
sg13
g14
sg15
g16
sg17
g18
sg19
g20
sS'*'
g21
sg22
g23
sg24
g23
sg25
g26
sg27
g23
ssg28
S'DomainType'
p687
sg30
I00
sg31
I00
sg32
Nsg33
g654
sg35
I00
sg36
I01
sg37
I00
sg38
Nsg39
Nsg40
Nsg41
Nsg42
I00
sg43
Nsg44
I00
sba(iwrapper_utilities.class_data
CppClass
p688
(dp689
g4
Nsg5
(dp690
g7
g8
sg9
g10
sg11
g12
sg13
g14
sg15
g16
sg17
g18
sg19
g20
sS'*'
g21
sg22
g23
sg24
g23
sg25
g26
sg27
g23
ssg28
S'VesselNetworkReader'
p691
sg30
I00
sg31
I00
sg32
Nsg33
S'vessel'
p692
sg35
I01
sg36
I01
sg37
I00
sg38
Nsg39
g107
sg40
Nsg41
Nsg42
I00
sg43
S'/home/grogan/Chaste/projects/MicrovesselChaste/src/population/vessel/readers/VesselNetworkReader.hpp'
p693
sg44
I00
sba(iwrapper_utilities.class_data
CppClass
p694
(dp695
g4
Nsg5
(dp696
g7
g8
sg9
g10
sg11
g12
sg13
g14
sg15
g16
sg17
g18
sg19
g20
sS'*'
g21
sg22
g23
sg24
g23
sg25
g26
sg27
g23
ssg28
S'NodeFlowProperties'
p697
sg30
I00
sg31
I00
sg32
Nsg33
g692
sg35
I01
sg36
I01
sg37
I00
sg38
Nsg39
g107
sg40
Nsg41
Nsg42
I00
sg43
S'/home/grogan/Chaste/projects/MicrovesselChaste/src/population/vessel/properties/NodeFlowProperties.hpp'
p698
sg44
I00
sba(iwrapper_utilities.class_data
CppClass
p699
(dp700
g4
Nsg5
(dp701
g7
g8
sg9
g10
sg11
g12
sg13
g14
sg15
g16
sg17
g18
sg19
g20
sS'*'
g21
sg22
g23
sg24
g23
sg25
g26
sg27
g23
ssg28
S'SegmentFlowProperties'
p702
sg30
I00
sg31
I00
sg32
Nsg33
g692
sg35
I01
sg36
I01
sg37
I00
sg38
Nsg39
g107
sg40
Nsg41
Nsg42
I00
sg43
S'/home/grogan/Chaste/projects/MicrovesselChaste/src/population/vessel/properties/SegmentFlowProperties.hpp'
p703
sg44
I00
sba(iwrapper_utilities.class_data
CppClass
p704
(dp705
g4
Nsg5
(dp706
g7
g8
sg9
g10
sg11
g12
sg13
g14
sg15
g16
sg17
g18
sg19
g20
sS'*'
g21
sg22
g23
sg24
g23
sg25
g26
sg27
g23
ssg28
S'VesselFlowProperties'
p707
sg30
I00
sg31
I00
sg32
Nsg33
g692
sg35
I01
sg36
I01
sg37
I00
sg38
Nsg39
g107
sg40
Nsg41
Nsg42
I00
sg43
S'/home/grogan/Chaste/projects/MicrovesselChaste/src/population/vessel/properties/VesselFlowProperties.hpp'
p708
sg44
I00
sba(iwrapper_utilities.class_data
CppClass
p709
(dp710
g4
Nsg5
(dp711
g7
g8
sg9
g10
sg11
g12
sg13
g14
sg15
g16
sg17
g18
sg19
g20
sS'*'
g21
sg22
g23
sg24
g23
sg25
g26
sg27
g23
ssg28
S'VesselNode'
p712
sg30
I00
sg31
I00
sg32
Nsg33
g692
sg35
I01
sg36
I01
sg37
I00
sg38
Nsg39
g107
sg40
Nsg41
Nsg42
I01
sg43
S'/home/grogan/Chaste/projects/MicrovesselChaste/src/population/vessel/VesselNode.hpp'
p713
sg44
I00
sba(iwrapper_utilities.class_data
CppClass
p714
(dp715
g4
Nsg5
(dp716
g7
g8
sg9
g10
sg11
g12
sg13
g14
sg15
g16
sg17
g18
sg19
g20
sS'*'
g21
sg22
g23
sg24
g23
sg25
g26
sg27
g23
ssg28
S'VesselSegment'
p717
sg30
I00
sg31
I00
sg32
Nsg33
g692
sg35
I01
sg36
I01
sg37
I00
sg38
Nsg39
g107
sg40
Nsg41
Nsg42
I01
sg43
S'/home/grogan/Chaste/projects/MicrovesselChaste/src/population/vessel/VesselSegment.hpp'
p718
sg44
I00
sba(iwrapper_utilities.class_data
CppClass
p719
(dp720
g4
Nsg5
(dp721
g7
g8
sg9
g10
sg11
g12
sg13
g14
sg15
g16
sg17
g18
sg19
g20
sS'*'
g21
sg22
g23
sg24
g23
sg25
g26
sg27
g23
ssg28
S'Vessel'
p722
sg30
I00
sg31
I00
sg32
Nsg33
g692
sg35
I01
sg36
I01
sg37
I00
sg38
Nsg39
g107
sg40
Nsg41
Nsg42
I01
sg43
S'/home/grogan/Chaste/projects/MicrovesselChaste/src/population/vessel/Vessel.hpp'
p723
sg44
I00
sba(iwrapper_utilities.class_data
CppClass
p724
(dp725
g4
Nsg5
(dp726
g7
g8
sg9
g10
sg11
g12
sg13
g14
sg15
g16
sg17
g18
sg19
g20
sS'*'
g21
sg22
g23
sg24
g23
sg25
g26
sg27
g23
ssg28
S'VesselNetwork'
p727
sg30
I00
sg31
I00
sg32
Nsg33
g692
sg35
I01
sg36
I01
sg37
I00
sg38
Nsg39
g107
sg40
Nsg41
Nsg42
I00
sg43
S'/home/grogan/Chaste/projects/MicrovesselChaste/src/population/vessel/VesselNetwork.hpp'
p728
sg44
I00
sba(iwrapper_utilities.class_data
CppClass
p729
(dp730
g4
Nsg5
(dp731
g7
g8
sg9
g10
sg11
g12
sg13
g14
sg15
g16
sg17
g18
sg19
g20
sS'*'
g21
sg22
g23
sg24
g23
sg25
g26
sg27
g23
ssg28
S'VesselNetworkVtkConverter'
p732
sg30
I00
sg31
I00
sg32
Nsg33
g692
sg35
I01
sg36
I01
sg37
I00
sg38
Nsg39
g107
sg40
Nsg41
Nsg42
I00
sg43
S'/home/grogan/Chaste/projects/MicrovesselChaste/src/population/vessel/converters/VesselNetworkVtkConverter.hpp'
p733
sg44
I00
sba(iwrapper_utilities.class_data
CppClass
p734
(dp735
g4
Nsg5
(dp736
g7
g8
sg9
g10
sg11
g12
sg13
g14
sg15
g16
sg17
g18
sg19
g20
sS'*'
g21
sg22
g23
sg24
g23
sg25
g26
sg27
g23
ssg28
S'VesselNetworkPropertyManager'
p737
sg30
I00
sg31
I00
sg32
Nsg33
g692
sg35
I01
sg36
I01
sg37
I00
sg38
Nsg39
g107
sg40
Nsg41
Nsg42
I00
sg43
S'/home/grogan/Chaste/projects/MicrovesselChaste/src/population/vessel/properties/VesselNetworkPropertyManager.hpp'
p738
sg44
I00
sba(iwrapper_utilities.class_data
CppClass
p739
(dp740
g4
Nsg5
(dp741
g7
g8
sg9
g10
sg11
g12
sg13
g14
sg15
g16
sg17
g18
sg19
g20
sS'*'
g21
sg22
g23
sg24
g23
sg25
g26
sg27
g23
ssg28
S'VesselNetworkPartitioner'
p742
sg30
I00
sg31
I00
sg32
Nsg33
g692
sg35
I01
sg36
I01
sg37
I00
sg38
Nsg39
g107
sg40
Nsg41
Nsg42
I00
sg43
S'/home/grogan/Chaste/projects/MicrovesselChaste/src/population/vessel/parallel/VesselNetworkPartitioner.hpp'
p743
sg44
I00
sba(iwrapper_utilities.class_data
CppClass
p744
(dp745
g4
Nsg5
(dp746
g7
g8
sg9
g10
sg11
g12
sg13
g14
sg15
g16
sg17
g18
sg19
g20
sS'*'
g21
sg22
g23
sg24
g23
sg25
g26
sg27
g23
ssg28
S'VesselNetworkGenerator'
p747
sg30
I00
sg31
I00
sg32
Nsg33
g692
sg35
I01
sg36
I01
sg37
I00
sg38
Nsg39
g107
sg40
Nsg41
Nsg42
I00
sg43
S'/home/grogan/Chaste/projects/MicrovesselChaste/src/population/vessel/generators/VesselNetworkGenerator.hpp'
p748
sg44
I00
sba(iwrapper_utilities.class_data
CppClass
p749
(dp750
g4
Nsg5
(dp751
g7
g8
sg9
g10
sg11
g12
sg13
g14
sg15
g16
sg17
g18
sg19
g20
sS'*'
g21
sg22
g23
sg24
g23
sg25
g26
sg27
g23
ssg28
S'AbstractVesselNetworkComponent'
p752
sg30
I00
sg31
I00
sg32
Nsg33
g692
sg35
I01
sg36
I01
sg37
I00
sg38
Nsg39
g107
sg40
Nsg41
Nsg42
I00
sg43
S'/home/grogan/Chaste/projects/MicrovesselChaste/src/population/vessel/AbstractVesselNetworkComponent.hpp'
p753
sg44
I00
sba(iwrapper_utilities.class_data
CppClass
p754
(dp755
g4
Nsg5
(dp756
g7
g8
sg9
g10
sg11
g12
sg13
g14
sg15
g16
sg17
g18
sg19
g20
sS'*'
g21
sg22
g23
sg24
g23
sg25
g26
sg27
g23
ssg28
S'VesselNetworkCellPopulationInteractor'
p757
sg30
I00
sg31
I00
sg32
Nsg33
Nsg35
I01
sg36
I01
sg37
I00
sg38
Nsg39
g107
sg40
Nsg41
Nsg42
I00
sg43
S'/home/grogan/Chaste/projects/MicrovesselChaste/src/population/VesselNetworkCellPopulationInteractor.hpp'
p758
sg44
I00
sba(iwrapper_utilities.class_data
CppClass
p759
(dp760
g4
Nsg5
(dp761
g7
g8
sg9
g10
sg11
g12
sg13
g14
sg15
g16
sg17
g18
sg19
g20
sS'*'
g21
sg22
g23
sg24
g23
sg25
g26
sg27
g23
ssg28
S'VesselNetworkWriter'
p762
sg30
I00
sg31
I00
sg32
Nsg33
g692
sg35
I01
sg36
I01
sg37
I00
sg38
Nsg39
g107
sg40
Nsg41
Nsg42
I00
sg43
S'/home/grogan/Chaste/projects/MicrovesselChaste/src/population/vessel/writers/VesselNetworkWriter.hpp'
p763
sg44
I00
sba(iwrapper_utilities.class_data
CppClass
p764
(dp765
g4
Nsg5
(dp766
g7
g8
sg9
g10
sg11
g12
sg13
g14
sg15
g16
sg17
g18
sg19
g20
sS'*'
g21
sg22
g23
sg24
g23
sg25
g26
sg27
g23
ssg28
S'DistanceMap'
p767
sg30
I00
sg31
I00
sg32
Nsg33
g692
sg35
I01
sg36
I01
sg37
I00
sg38
Nsg39
g107
sg40
Nsg41
Nsg42
I00
sg43
S'/home/grogan/Chaste/projects/MicrovesselChaste/src/population/vessel/calculators/DistanceMap.hpp'
p768
sg44
I00
sba(iwrapper_utilities.class_data
CppClass
p769
(dp770
g4
Nsg5
(dp771
g7
g8
sg9
g10
sg11
g12
sg13
g14
sg15
g16
sg17
g18
sg19
g20
sS'*'
g21
sg22
g23
sg24
g23
sg25
g26
sg27
g23
ssg28
S'VesselNetworkGeometryCalculator'
p772
sg30
I00
sg31
I00
sg32
Nsg33
g692
sg35
I01
sg36
I01
sg37
I00
sg38
Nsg39
g107
sg40
Nsg41
Nsg42
I00
sg43
S'/home/grogan/Chaste/projects/MicrovesselChaste/src/population/vessel/calculators/VesselNetworkGeometryCalculator.hpp'
p773
sg44
I00
sba(iwrapper_utilities.class_data
CppClass
p774
(dp775
g4
Nsg5
(dp776
g7
g8
sg9
g10
sg11
g12
sg13
g14
sg15
g16
sg17
g18
sg19
g20
sS'*'
g21
sg22
g23
sg24
g23
sg25
g26
sg27
g23
ssg28
S'VesselNetworkGraphCalculator'
p777
sg30
I00
sg31
I00
sg32
Nsg33
g692
sg35
I01
sg36
I01
sg37
I00
sg38
Nsg39
g107
sg40
Nsg41
Nsg42
I00
sg43
S'/home/grogan/Chaste/projects/MicrovesselChaste/src/population/vessel/calculators/VesselNetworkGraphCalculator.hpp'
p778
sg44
I00
sba(iwrapper_utilities.class_data
CppClass
p779
(dp780
g4
Nsg5
(dp781
g7
g8
sg9
g10
sg11
g12
sg13
g14
sg15
g16
sg17
g18
sg19
g20
sS'*'
g21
sg22
g23
sg24
g23
sg25
g26
sg27
g23
ssg28
S'AbstractVesselNetworkComponentProperties'
p782
sg30
I00
sg31
I00
sg32
Nsg33
g692
sg35
I01
sg36
I01
sg37
I00
sg38
Nsg39
g107
sg40
Nsg41
Nsg42
I00
sg43
S'/home/grogan/Chaste/projects/MicrovesselChaste/src/population/vessel/properties/AbstractVesselNetworkComponentProperties.hpp'
p783
sg44
I00
sba(iwrapper_utilities.class_data
CppClass
p784
(dp785
g4
Nsg5
(dp786
g7
g8
sg9
g10
sg11
g12
sg13
g14
sg15
g16
sg17
g18
sg19
g20
sS'*'
g21
sg22
g23
sg24
g23
sg25
g26
sg27
g23
ssg28
S'AbstractVesselNetworkComponentFlowProperties'
p787
sg30
I00
sg31
I00
sg32
Nsg33
g692
sg35
I01
sg36
I01
sg37
I00
sg38
Nsg39
g107
sg40
Nsg41
Nsg42
I00
sg43
S'/home/grogan/Chaste/projects/MicrovesselChaste/src/population/vessel/properties/AbstractVesselNetworkComponentFlowProperties.hpp'
p788
sg44
I00
sba(iwrapper_utilities.class_data
CppClass
p789
(dp790
g4
Nsg5
(dp791
g7
g8
sg9
g10
sg11
g12
sg13
g14
sg15
g16
sg17
g18
sg19
g20
sS'*'
g21
sg22
g23
sg24
g23
sg25
g26
sg27
g23
ssg28
S'AbstractVesselNetworkComponentChemicalProperties'
p792
sg30
I00
sg31
I00
sg32
Nsg33
g692
sg35
I01
sg36
I01
sg37
I00
sg38
Nsg39
g107
sg40
Nsg41
Nsg42
I00
sg43
S'/home/grogan/Chaste/projects/MicrovesselChaste/src/population/vessel/properties/AbstractVesselNetworkComponentChemicalProperties.hpp'
p793
sg44
I00
sba(iwrapper_utilities.class_data
CppClass
p794
(dp795
g4
Nsg5
(dp796
g7
g8
sg9
g10
sg11
g12
sg13
g14
sg15
g16
sg17
g18
sg19
g20
sS'*'
g21
sg22
g23
sg24
g23
sg25
g26
sg27
g23
ssg28
S'MicrovesselVtkScene'
p797
sg30
I00
sg31
I00
sg32
Nsg33
S'visualization'
p798
sg35
I01
sg36
I01
sg37
I00
sg38
Nsg39
g107
sg40
Nsg41
Nsg42
I00
sg43
S'/home/grogan/Chaste/projects/MicrovesselChaste/src/utility/visualization/MicrovesselVtkScene.hpp'
p799
sg44
I00
sba(iwrapper_utilities.class_data
CppClass
p800
(dp801
g4
Nsg5
(dp802
g7
g8
sg9
g10
sg11
g12
sg13
g14
sg15
g16
sg17
g18
sg19
g20
sS'*'
g21
sg22
g23
sg24
g23
sg25
g26
sg27
g23
ssg28
S'CellPopulationActorGenerator'
p803
sg30
I00
sg31
I00
sg32
Nsg33
g798
sg35
I01
sg36
I01
sg37
I00
sg38
Nsg39
g107
sg40
Nsg41
Nsg42
I00
sg43
S'/home/grogan/Chaste/projects/MicrovesselChaste/src/utility/visualization/CellPopulationActorGenerator.hpp'
p804
sg44
I00
sba(iwrapper_utilities.class_data
CppClass
p805
(dp806
g4
Nsg5
(dp807
g7
g8
sg9
g10
sg11
g12
sg13
g14
sg15
g16
sg17
g18
sg19
g20
sS'*'
g21
sg22
g23
sg24
g23
sg25
g26
sg27
g23
ssg28
S'DiscreteContinuumMeshActorGenerator'
p808
sg30
I00
sg31
I00
sg32
Nsg33
g798
sg35
I01
sg36
I01
sg37
I00
sg38
Nsg39
g107
sg40
Nsg41
Nsg42
I00
sg43
S'/home/grogan/Chaste/projects/MicrovesselChaste/src/utility/visualization/DiscreteContinuumMeshActorGenerator.hpp'
p809
sg44
I00
sba(iwrapper_utilities.class_data
CppClass
p810
(dp811
g4
Nsg5
(dp812
g7
g8
sg9
g10
sg11
g12
sg13
g14
sg15
g16
sg17
g18
sg19
g20
sS'*'
g21
sg22
g23
sg24
g23
sg25
g26
sg27
g23
ssg28
S'PartActorGenerator'
p813
sg30
I00
sg31
I00
sg32
Nsg33
g798
sg35
I01
sg36
I01
sg37
I00
sg38
Nsg39
g107
sg40
Nsg41
Nsg42
I00
sg43
S'/home/grogan/Chaste/projects/MicrovesselChaste/src/utility/visualization/PartActorGenerator.hpp'
p814
sg44
I00
sba(iwrapper_utilities.class_data
CppClass
p815
(dp816
g4
Nsg5
(dp817
g7
g8
sg9
g10
sg11
g12
sg13
g14
sg15
g16
sg17
g18
sg19
g20
sS'*'
g21
sg22
g23
sg24
g23
sg25
g26
sg27
g23
ssg28
S'RegularGridActorGenerator'
p818
sg30
I00
sg31
I00
sg32
Nsg33
g798
sg35
I01
sg36
I01
sg37
I00
sg38
Nsg39
g107
sg40
Nsg41
Nsg42
I00
sg43
S'/home/grogan/Chaste/projects/MicrovesselChaste/src/utility/visualization/RegularGridActorGenerator.hpp'
p819
sg44
I00
sba(iwrapper_utilities.class_data
CppClass
p820
(dp821
g4
Nsg5
(dp822
g7
g8
sg9
g10
sg11
g12
sg13
g14
sg15
g16
sg17
g18
sg19
g20
sS'*'
g21
sg22
g23
sg24
g23
sg25
g26
sg27
g23
ssg28
S'VesselNetworkActorGenerator'
p823
sg30
I00
sg31
I00
sg32
Nsg33
g798
sg35
I01
sg36
I01
sg37
I00
sg38
Nsg39
g107
sg40
Nsg41
Nsg42
I00
sg43
S'/home/grogan/Chaste/projects/MicrovesselChaste/src/utility/visualization/VesselNetworkActorGenerator.hpp'
p824
sg44
I00
sba(iwrapper_utilities.class_data
CppClass
p825
(dp826
g4
Nsg5
(dp827
g7
g8
sg9
g10
sg11
g12
sg13
g14
sg15
g16
sg17
g18
sg19
g20
sS'*'
g21
sg22
g23
sg24
g23
sg25
g26
sg27
g23
ssg28
S'AbstractActorGenerator'
p828
sg30
I00
sg31
I00
sg32
Nsg33
g798
sg35
I01
sg36
I01
sg37
I00
sg38
Nsg39
g107
sg40
Nsg41
Nsg42
I00
sg43
S'/home/grogan/Chaste/projects/MicrovesselChaste/src/utility/visualization/AbstractActorGenerator.hpp'
p829
sg44
I00
sba(iwrapper_utilities.class_data
CppClass
p830
(dp831
g4
Nsg5
(dp832
g7
g8
sg9
g10
sg11
g12
sg13
g14
sg15
g16
sg17
g18
sg19
g20
sS'*'
g21
sg22
g23
sg24
g23
sg25
g26
sg27
g23
ssg28
g664
sg30
I00
sg31
I00
sg32
Nsg33
g654
sg35
I01
sg36
I01
sg37
I00
sg38
Nsg39
g107
sg40
Nsg41
Nsg42
I00
sg43
S'/home/grogan/Chaste/projects/MicrovesselChaste/src/simulation/modifiers/AbstractMicrovesselModifier.hpp'
p833
sg44
I00
sba(iwrapper_utilities.class_data
CppClass
p834
(dp835
g4
Nsg5
(dp836
g7
g8
sg9
g10
sg11
g12
sg13
g14
sg15
g16
sg17
g18
sg19
g20
sS'*'
g21
sg22
g23
sg24
g23
sg25
g26
sg27
g23
ssg28
g668
sg30
I00
sg31
I00
sg32
Nsg33
g654
sg35
I01
sg36
I01
sg37
I00
sg38
Nsg39
g107
sg40
Nsg41
Nsg42
I00
sg43
S'/home/grogan/Chaste/projects/MicrovesselChaste/src/simulation/modifiers/VtkSceneMicrovesselModifier.hpp'
p837
sg44
I00
sba(iwrapper_utilities.class_data
CppClass
p838
(dp839
g4
Nsg5
(dp840
g7
g8
sg9
g10
sg11
g12
sg13
g14
sg15
g16
sg17
g18
sg19
g20
sS'*'
g21
sg22
g23
sg24
g23
sg25
g26
sg27
g23
ssg28
S'ParameterInstance'
p841
sg30
I00
sg31
I00
sg32
Nsg33
S'utility'
p842
sg35
I01
sg36
I00
sg37
I01
sg38
Nsg39
Nsg40
Nsg41
Nsg42
I00
sg43
S'/home/grogan/Chaste/projects/MicrovesselChaste/src/utility/ParameterInstance.hpp'
p843
sg44
I00
sba(iwrapper_utilities.class_data
CppClass
p844
(dp845
g4
Nsg5
(dp846
g7
g8
sg9
g10
sg11
g12
sg13
g14
sg15
g16
sg17
g18
sg19
g20
sS'*'
g21
sg22
g23
sg24
g23
sg25
g26
sg27
g23
ssg28
S'BaseUnits'
p847
sg30
I00
sg31
I00
sg32
Nsg33
g842
sg35
I01
sg36
I01
sg37
I00
sg38
Nsg39
Nsg40
Nsg41
Nsg42
I00
sg43
S'/home/grogan/Chaste/projects/MicrovesselChaste/src/utility/BaseUnits.hpp'
p848
sg44
I00
sba(iwrapper_utilities.class_data
CppClass
p849
(dp850
g4
Nsg5
(dp851
g7
g8
sg9
g10
sg11
g12
sg13
g14
sg15
g16
sg17
g18
sg19
g20
sS'*'
g21
sg22
g23
sg24
g23
sg25
g26
sg27
g23
ssg28
S'UnitCollection'
p852
sg30
I00
sg31
I00
sg32
Nsg33
g842
sg35
I01
sg36
I00
sg37
I01
sg38
Nsg39
Nsg40
Nsg41
Nsg42
I00
sg43
S'/home/grogan/Chaste/projects/MicrovesselChaste/src/utility/UnitCollection.hpp'
p853
sg44
I00
sba(iwrapper_utilities.class_data
CppClass
p854
(dp855
g4
Nsg5
(dp856
g7
g8
sg9
g10
sg11
g12
sg13
g14
sg15
g16
sg17
g18
sg19
g20
sS'*'
g21
sg22
g23
sg24
g23
sg25
g26
sg27
g23
ssg28
S'ParameterCollection'
p857
sg30
I00
sg31
I00
sg32
Nsg33
g842
sg35
I01
sg36
I01
sg37
I00
sg38
Nsg39
Nsg40
Nsg41
Nsg42
I00
sg43
S'/home/grogan/Chaste/projects/MicrovesselChaste/src/utility/ParameterCollection.hpp'
p858
sg44
I00
sba(iwrapper_utilities.class_data
CppClass
p859
(dp860
g4
Nsg5
(dp861
g7
g8
sg9
g10
sg11
g12
sg13
g14
sg15
g16
sg17
g18
sg19
g20
sS'*'
g21
sg22
g23
sg24
g23
sg25
g26
sg27
g23
ssg28
S'BaseParameterInstance'
p862
sg30
I00
sg31
I00
sg32
Nsg33
g842
sg35
I01
sg36
I01
sg37
I00
sg38
Nsg39
Nsg40
Nsg41
Nsg42
I00
sg43
S'/home/grogan/Chaste/projects/MicrovesselChaste/src/utility/BaseParameterInstance.hpp'
p863
sg44
I00
sba(iwrapper_utilities.class_data
CppClass
p864
(dp865
g4
Nsg5
(dp866
g7
g8
sg9
g10
sg11
g12
sg13
g14
sg15
g16
sg17
g18
sg19
g20
sS'*'
g21
sg22
g23
sg24
g23
sg25
g26
sg27
g23
ssg28
S'Owen11Parameters'
p867
sg30
I00
sg31
I00
sg32
Nsg33
g842
sg35
I01
sg36
I01
sg37
I00
sg38
Nsg39
Nsg40
Nsg41
Nsg42
I00
sg43
S'/home/grogan/Chaste/projects/MicrovesselChaste/src/utility/literature_parameters/Owen11Parameters.hpp'
p868
sg44
I00
sba(iwrapper_utilities.class_data
CppClass
p869
(dp870
g4
Nsg5
(dp871
g7
g8
sg9
g10
sg11
g12
sg13
g14
sg15
g16
sg17
g18
sg19
g20
sS'*'
g21
sg22
g23
sg24
g23
sg25
g26
sg27
g23
ssg28
S'Connor17Parameters'
p872
sg30
I00
sg31
I00
sg32
Nsg33
g842
sg35
I01
sg36
I01
sg37
I00
sg38
Nsg39
Nsg40
Nsg41
Nsg42
I00
sg43
S'/home/grogan/Chaste/projects/MicrovesselChaste/src/utility/literature_parameters/Connor17Parameters.hpp'
p873
sg44
I00
sba(iwrapper_utilities.class_data
CppClass
p874
(dp875
g4
Nsg5
(dp876
g7
g8
sg9
g10
sg11
g12
sg13
g14
sg15
g16
sg17
g18
sg19
g20
sS'*'
g21
sg22
g23
sg24
g23
sg25
g26
sg27
g23
ssg28
S'Secomb04Parameters'
p877
sg30
I00
sg31
I00
sg32
Nsg33
g842
sg35
I01
sg36
I01
sg37
I00
sg38
Nsg39
Nsg40
Nsg41
Nsg42
I00
sg43
S'/home/grogan/Chaste/projects/MicrovesselChaste/src/utility/literature_parameters/Secomb04Parameters.hpp'
p878
sg44
I00
sba(iwrapper_utilities.class_data
CppClass
p879
(dp880
g4
Nsg5
(dp881
g7
g8
sg9
g10
sg11
g12
sg13
g14
sg15
g16
sg17
g18
sg19
g20
sS'*'
g21
sg22
g23
sg24
g23
sg25
g26
sg27
g23
ssg28
S'GenericParameters'
p882
sg30
I00
sg31
I00
sg32
Nsg33
g842
sg35
I01
sg36
I01
sg37
I00
sg38
Nsg39
Nsg40
Nsg41
Nsg42
I00
sg43
S'/home/grogan/Chaste/projects/MicrovesselChaste/src/utility/literature_parameters/GenericParameters.hpp'
p883
sg44
I00
sba(iwrapper_utilities.class_data
CppClass
p884
(dp885
g4
Nsg5
(dp886
g7
g8
sg9
g10
sg11
g12
sg13
g14
sg15
g16
sg17
g18
sg19
g20
sS'*'
g21
sg22
g23
sg24
g23
sg25
g26
sg27
g23
ssg28
S'ImageReader'
p887
sg30
I00
sg31
I00
sg32
Nsg33
S'image'
p888
sg35
I01
sg36
I01
sg37
I00
sg38
Nsg39
Nsg40
Nsg41
Nsg42
I00
sg43
S'/home/grogan/Chaste/projects/MicrovesselChaste/src/image/ImageReader.hpp'
p889
sg44
I00
sba(iwrapper_utilities.class_data
CppClass
p890
(dp891
g4
Nsg5
(dp892
g7
g8
sg9
g10
sg11
g12
sg13
g14
sg15
g16
sg17
g18
sg19
g20
sS'*'
g21
sg22
g23
sg24
g23
sg25
g26
sg27
g23
ssg28
S'ImageToMesh'
p893
sg30
I00
sg31
I00
sg32
Nsg33
g888
sg35
I01
sg36
I01
sg37
I00
sg38
Nsg39
g107
sg40
Nsg41
Nsg42
I00
sg43
S'/home/grogan/Chaste/projects/MicrovesselChaste/src/image/ImageToMesh.hpp'
p894
sg44
I00
sba(iwrapper_utilities.class_data
CppClass
p895
(dp896
g4
Nsg5
(dp897
g7
g8
sg9
g10
sg11
g12
sg13
g14
sg15
g16
sg17
g18
sg19
g20
sS'*'
g21
sg22
g23
sg24
g23
sg25
g26
sg27
g23
ssg28
S'ImageToSurface'
p898
sg30
I00
sg31
I00
sg32
Nsg33
g888
sg35
I01
sg36
I01
sg37
I00
sg38
Nsg39
Nsg40
Nsg41
Nsg42
I00
sg43
S'/home/grogan/Chaste/projects/MicrovesselChaste/src/image/ImageToSurface.hpp'
p899
sg44
I00
sba(iwrapper_utilities.class_data
CppClass
p900
(dp901
g4
Nsg5
(dp902
g7
g8
sg9
g10
sg11
g12
sg13
g14
sg15
g16
sg17
g18
sg19
g20
sS'*'
g21
sg22
g23
sg24
g23
sg25
g26
sg27
g23
ssg28
S'NetworkToImage'
p903
sg30
I00
sg31
I00
sg32
Nsg33
g888
sg35
I01
sg36
I01
sg37
I00
sg38
Nsg39
g107
sg40
Nsg41
Nsg42
I00
sg43
S'/home/grogan/Chaste/projects/MicrovesselChaste/src/image/NetworkToImage.hpp'
p904
sg44
I00
sba.