(lp1
(iwrapper_utilities.class_data
CppClass
p2
(dp3
S'pointer_return_methods'
p4
NsS'name_replacements'
p5
(dp6
S'std::string'
p7
S'String'
p8
sS'c_vector'
p9
S'CVector'
p10
sS'std::set'
p11
S'Set'
p12
sS'std::pair'
p13
S'Pair'
p14
sS'std::map'
p15
S'Map'
p16
sS'boost::shared_ptr'
p17
S'SharedPtr'
p18
sS'std::vector'
p19
S'Vector'
p20
sS'*'
S'Ptr'
p21
sS'unsigned'
p22
S'Unsigned'
p23
sS'unsigned int'
p24
g23
sS'double'
p25
S'Double'
p26
sS'Unsigned int'
p27
g23
ssS'name'
p28
S'std::string'
p29
sS'include_ptr_self'
p30
I00
sS'include_raw_ptr_self'
p31
I00
sS'declaration_code'
p32
NsS'component'
p33
S'extra'
p34
sS'needs_include_file'
p35
I00
sS'needs_instantiation'
p36
I00
sS'skip_wrapping'
p37
I01
sS'excluded_variables'
p38
NsS'template_args'
p39
NsS'excluded_methods'
p40
NsS'name_override'
p41
NsS'include_vec_ptr_self'
p42
I00
sS'full_path'
p43
NsS'include_file_only'
p44
I00
sba(iwrapper_utilities.class_data
CppClass
p45
(dp46
g4
Nsg5
(dp47
g7
g8
sg9
g10
sg11
g12
sg13
g14
sg15
g16
sg17
g18
sg19
g20
sS'*'
g21
sg22
g23
sg24
g23
sg25
g26
sg27
g23
ssg28
S'std::map'
p48
sg30
I00
sg31
I00
sg32
Nsg33
g34
sg35
I00
sg36
I00
sg37
I01
sg38
Nsg39
(lp49
(lp50
g29
ag29
aa(lp51
S'std::string, double'
p52
aasg40
Nsg41
Nsg42
I00
sg43
Nsg44
I00
sba(iwrapper_utilities.class_data
CppClass
p53
(dp54
g4
Nsg5
(dp55
g7
g8
sg9
g10
sg11
g12
sg13
g14
sg15
g16
sg17
g18
sg19
g20
sS'*'
g21
sg22
g23
sg24
g23
sg25
g26
sg27
g23
ssg28
S'std::set'
p56
sg30
I00
sg31
I00
sg32
Nsg33
g34
sg35
I00
sg36
I00
sg37
I01
sg38
Nsg39
(lp57
(lp58
g22
aasg40
Nsg41
Nsg42
I00
sg43
Nsg44
I00
sba(iwrapper_utilities.class_data
CppClass
p59
(dp60
g4
Nsg5
(dp61
g7
g8
sg9
g10
sg11
g12
sg13
g14
sg15
g16
sg17
g18
sg19
g20
sS'*'
g21
sg22
g23
sg24
g23
sg25
g26
sg27
g23
ssg28
S'std::pair'
p62
sg30
I00
sg31
I00
sg32
Nsg33
g34
sg35
I00
sg36
I00
sg37
I01
sg38
Nsg39
(lp63
(lp64
S'unsigned int, unsigned int'
p65
aa(lp66
S'std::vector<double>, double'
p67
aasg40
Nsg41
Nsg42
I00
sg43
Nsg44
I00
sba(iwrapper_utilities.class_data
CppClass
p68
(dp69
g4
Nsg5
(dp70
g7
g8
sg9
g10
sg11
g12
sg13
g14
sg15
g16
sg17
g18
sg19
g20
sS'*'
g21
sg22
g23
sg24
g23
sg25
g26
sg27
g23
ssg28
S'std::vector'
p71
sg30
I00
sg31
I00
sg32
Nsg33
g34
sg35
I00
sg36
I00
sg37
I01
sg38
Nsg39
(lp72
(lp73
g25
aa(lp74
g22
aa(lp75
S'int'
p76
aa(lp77
S'bool'
p78
aa(lp79
g29
aa(lp80
S'c_vector<double,3>'
p81
aa(lp82
S'c_vector<double,2>'
p83
aa(lp84
S'c_vector<unsigned,5>'
p85
aa(lp86
S'std::set<unsigned int>'
p87
aa(lp88
S'std::vector<unsigned int>'
p89
aa(lp90
S'std::pair<unsigned int, unsigned int>'
p91
aa(lp92
S'std::pair<std::vector<double>, double>'
p93
aasg40
Nsg41
Nsg42
I00
sg43
Nsg44
I00
sba(iwrapper_utilities.class_data
CppClass
p94
(dp95
g4
Nsg5
(dp96
g7
g8
sg9
g10
sg11
g12
sg13
g14
sg15
g16
sg17
g18
sg19
g20
sS'*'
g21
sg22
g23
sg24
g23
sg25
g26
sg27
g23
ssg28
g9
sg30
I00
sg31
I00
sg32
Nsg33
g34
sg35
I00
sg36
I00
sg37
I01
sg38
Nsg39
(lp97
(lp98
g25
aI2
aa(lp99
g25
aI3
aa(lp100
g22
aI5
aasg40
Nsg41
Nsg42
I00
sg43
Nsg44
I00
sba(iwrapper_utilities.class_data
CppClass
p101
(dp102
g4
Nsg5
(dp103
g7
g8
sg9
g10
sg11
g12
sg13
g14
sg15
g16
sg17
g18
sg19
g20
sS'*'
g21
sg22
g23
sg24
g23
sg25
g26
sg27
g23
ssg28
S'Polygon'
p104
sg30
I00
sg31
I00
sg32
Nsg33
S'geometry'
p105
sg35
I01
sg36
I01
sg37
I00
sg38
Nsg39
(lp106
(lp107
I2
aa(lp108
I3
aasg40
Nsg41
Nsg42
I01
sg43
S'/home/grogan/Software/Chaste/projects/MicrovesselChaste/src/geometry/Polygon.hpp'
p109
sg44
I00
sba(iwrapper_utilities.class_data
CppClass
p110
(dp111
g4
Nsg5
(dp112
g7
g8
sg9
g10
sg11
g12
sg13
g14
sg15
g16
sg17
g18
sg19
g20
sS'*'
g21
sg22
g23
sg24
g23
sg25
g26
sg27
g23
ssg28
S'Facet'
p113
sg30
I00
sg31
I00
sg32
Nsg33
g105
sg35
I01
sg36
I01
sg37
I00
sg38
Nsg39
g106
sg40
Nsg41
Nsg42
I01
sg43
S'/home/grogan/Software/Chaste/projects/MicrovesselChaste/src/geometry/Facet.hpp'
p114
sg44
I00
sba(iwrapper_utilities.class_data
CppClass
p115
(dp116
g4
Nsg5
(dp117
g7
g8
sg9
g10
sg11
g12
sg13
g14
sg15
g16
sg17
g18
sg19
g20
sS'*'
g21
sg22
g23
sg24
g23
sg25
g26
sg27
g23
ssg28
S'Part'
p118
sg30
I00
sg31
I00
sg32
Nsg33
g105
sg35
I01
sg36
I01
sg37
I00
sg38
Nsg39
g106
sg40
Nsg41
Nsg42
I00
sg43
S'/home/grogan/Software/Chaste/projects/MicrovesselChaste/src/geometry/Part.hpp'
p119
sg44
I00
sba(iwrapper_utilities.class_data
CppClass
p120
(dp121
g4
Nsg5
(dp122
g7
g8
sg9
g10
sg11
g12
sg13
g14
sg15
g16
sg17
g18
sg19
g20
sS'*'
g21
sg22
g23
sg24
g23
sg25
g26
sg27
g23
ssg28
S'MappableGridGenerator'
p123
sg30
I00
sg31
I00
sg32
Nsg33
g105
sg35
I01
sg36
I01
sg37
I00
sg38
Nsg39
Nsg40
Nsg41
Nsg42
I00
sg43
S'/home/grogan/Software/Chaste/projects/MicrovesselChaste/src/geometry/generators/MappableGridGenerator.hpp'
p124
sg44
I00
sba(iwrapper_utilities.class_data
CppClass
p125
(dp126
g4
Nsg5
(dp127
g7
g8
sg9
g10
sg11
g12
sg13
g14
sg15
g16
sg17
g18
sg19
g20
sS'*'
g21
sg22
g23
sg24
g23
sg25
g26
sg27
g23
ssg28
S'NetworkToSurface'
p128
sg30
I00
sg31
I00
sg32
Nsg33
g105
sg35
I01
sg36
I01
sg37
I00
sg38
Nsg39
g106
sg40
Nsg41
Nsg42
I00
sg43
S'/home/grogan/Software/Chaste/projects/MicrovesselChaste/src/geometry/generators/NetworkToSurface.hpp'
p129
sg44
I00
sba(iwrapper_utilities.class_data
CppClass
p130
(dp131
g4
Nsg5
(dp132
g7
g8
sg9
g10
sg11
g12
sg13
g14
sg15
g16
sg17
g18
sg19
g20
sS'*'
g21
sg22
g23
sg24
g23
sg25
g26
sg27
g23
ssg28
S'VesselSurfaceGenerator'
p133
sg30
I00
sg31
I00
sg32
Nsg33
g105
sg35
I01
sg36
I01
sg37
I00
sg38
Nsg39
g106
sg40
Nsg41
Nsg42
I00
sg43
S'/home/grogan/Software/Chaste/projects/MicrovesselChaste/src/geometry/generators/VesselSurfaceGenerator.hpp'
p134
sg44
I00
sba(iwrapper_utilities.class_data
CppClass
p135
(dp136
g4
Nsg5
(dp137
g7
g8
sg9
g10
sg11
g12
sg13
g14
sg15
g16
sg17
g18
sg19
g20
sS'*'
g21
sg22
g23
sg24
g23
sg25
g26
sg27
g23
ssg28
S'BoundaryExtractor'
p138
sg30
I00
sg31
I00
sg32
Nsg33
g105
sg35
I01
sg36
I01
sg37
I00
sg38
Nsg39
Nsg40
Nsg41
Nsg42
I00
sg43
S'/home/grogan/Software/Chaste/projects/MicrovesselChaste/src/geometry/tools/BoundaryExtractor.hpp'
p139
sg44
I00
sba(iwrapper_utilities.class_data
CppClass
p140
(dp141
g4
Nsg5
(dp142
g7
g8
sg9
g10
sg11
g12
sg13
g14
sg15
g16
sg17
g18
sg19
g20
sS'*'
g21
sg22
g23
sg24
g23
sg25
g26
sg27
g23
ssg28
S'SurfaceCleaner'
p143
sg30
I00
sg31
I00
sg32
Nsg33
g105
sg35
I01
sg36
I01
sg37
I00
sg38
Nsg39
Nsg40
Nsg41
Nsg42
I00
sg43
S'/home/grogan/Software/Chaste/projects/MicrovesselChaste/src/geometry/tools/SurfaceCleaner.hpp'
p144
sg44
I00
sba(iwrapper_utilities.class_data
CppClass
p145
(dp146
g4
Nsg5
(dp147
g7
g8
sg9
g10
sg11
g12
sg13
g14
sg15
g16
sg17
g18
sg19
g20
sS'*'
g21
sg22
g23
sg24
g23
sg25
g26
sg27
g23
ssg28
S'GeometryFormat'
p148
sg30
I00
sg31
I00
sg32
Nsg33
g105
sg35
I00
sg36
I01
sg37
I00
sg38
Nsg39
Nsg40
Nsg41
Nsg42
I00
sg43
Nsg44
I00
sba(iwrapper_utilities.class_data
CppClass
p149
(dp150
g4
Nsg5
(dp151
g7
g8
sg9
g10
sg11
g12
sg13
g14
sg15
g16
sg17
g18
sg19
g20
sS'*'
g21
sg22
g23
sg24
g23
sg25
g26
sg27
g23
ssg28
S'GeometryWriter'
p152
sg30
I00
sg31
I00
sg32
Nsg33
g105
sg35
I01
sg36
I01
sg37
I00
sg38
Nsg39
Nsg40
Nsg41
Nsg42
I00
sg43
S'/home/grogan/Software/Chaste/projects/MicrovesselChaste/src/geometry/writers/GeometryWriter.hpp'
p153
sg44
I00
sba(iwrapper_utilities.class_data
CppClass
p154
(dp155
g4
Nsg5
(dp156
g7
g8
sg9
g10
sg11
g12
sg13
g14
sg15
g16
sg17
g18
sg19
g20
sS'*'
g21
sg22
g23
sg24
g23
sg25
g26
sg27
g23
ssg28
S'AbstractMesh'
p157
sg30
I00
sg31
I00
sg32
Nsg33
S'mesh'
p158
sg35
I01
sg36
I01
sg37
I00
sg38
Nsg39
(lp159
(lp160
I2
aI2
aa(lp161
I3
aI3
aasg40
Nsg41
Nsg42
I00
sg43
S'/home/grogan/Software/Chaste/mesh/src/common/AbstractMesh.hpp'
p162
sg44
I00
sba(iwrapper_utilities.class_data
CppClass
p163
(dp164
g4
Nsg5
(dp165
g7
g8
sg9
g10
sg11
g12
sg13
g14
sg15
g16
sg17
g18
sg19
g20
sS'*'
g21
sg22
g23
sg24
g23
sg25
g26
sg27
g23
ssg28
S'AbstractTetrahedralMesh'
p166
sg30
I00
sg31
I00
sg32
Nsg33
g158
sg35
I01
sg36
I01
sg37
I00
sg38
Nsg39
g159
sg40
Nsg41
Nsg42
I00
sg43
S'/home/grogan/Software/Chaste/mesh/src/common/AbstractTetrahedralMesh.hpp'
p167
sg44
I00
sba(iwrapper_utilities.class_data
CppClass
p168
(dp169
g4
Nsg5
(dp170
g7
g8
sg9
g10
sg11
g12
sg13
g14
sg15
g16
sg17
g18
sg19
g20
sS'*'
g21
sg22
g23
sg24
g23
sg25
g26
sg27
g23
ssg28
S'TetrahedralMesh'
p171
sg30
I00
sg31
I00
sg32
Nsg33
g158
sg35
I01
sg36
I01
sg37
I00
sg38
Nsg39
g159
sg40
(lp172
S'FreeTriangulateIo'
p173
aS'InitialiseTriangulateIo'
p174
asg41
Nsg42
I00
sg43
S'/home/grogan/Software/Chaste/mesh/src/common/TetrahedralMesh.hpp'
p175
sg44
I00
sba(iwrapper_utilities.class_data
CppClass
p176
(dp177
g4
Nsg5
(dp178
g7
g8
sg9
g10
sg11
g12
sg13
g14
sg15
g16
sg17
g18
sg19
g20
sS'*'
g21
sg22
g23
sg24
g23
sg25
g26
sg27
g23
ssg28
S'AbstractDiscreteContinuumGrid'
p179
sg30
I00
sg31
I00
sg32
Nsg33
g158
sg35
I01
sg36
I01
sg37
I00
sg38
Nsg39
g159
sg40
Nsg41
Nsg42
I00
sg43
S'/home/grogan/Software/Chaste/projects/MicrovesselChaste/src/mesh/AbstractDiscreteContinuumGrid.hpp'
p180
sg44
I00
sba(iwrapper_utilities.class_data
CppClass
p181
(dp182
g4
Nsg5
(dp183
g7
g8
sg9
g10
sg11
g12
sg13
g14
sg15
g16
sg17
g18
sg19
g20
sS'*'
g21
sg22
g23
sg24
g23
sg25
g26
sg27
g23
ssg28
S'DimensionalChastePoint'
p184
sg30
I00
sg31
I00
sg32
Nsg33
g158
sg35
I01
sg36
I01
sg37
I00
sg38
Nsg39
g106
sg40
Nsg41
Nsg42
I01
sg43
S'/home/grogan/Software/Chaste/projects/MicrovesselChaste/src/mesh/DimensionalChastePoint.hpp'
p185
sg44
I00
sba(iwrapper_utilities.class_data
CppClass
p186
(dp187
g4
Nsg5
(dp188
g7
g8
sg9
g10
sg11
g12
sg13
g14
sg15
g16
sg17
g18
sg19
g20
sS'*'
g21
sg22
g23
sg24
g23
sg25
g26
sg27
g23
ssg28
S'DiscreteContinuumMesh'
p189
sg30
I00
sg31
I00
sg32
Nsg33
g158
sg35
I01
sg36
I01
sg37
I00
sg38
Nsg39
g159
sg40
Nsg41
Nsg42
I00
sg43
S'/home/grogan/Software/Chaste/projects/MicrovesselChaste/src/mesh/DiscreteContinuumMesh.hpp'
p190
sg44
I00
sba(iwrapper_utilities.class_data
CppClass
p191
(dp192
g4
Nsg5
(dp193
g7
g8
sg9
g10
sg11
g12
sg13
g14
sg15
g16
sg17
g18
sg19
g20
sS'*'
g21
sg22
g23
sg24
g23
sg25
g26
sg27
g23
ssg28
S'DiscreteContinuumMeshGenerator'
p194
sg30
I00
sg31
I00
sg32
Nsg33
g158
sg35
I01
sg36
I01
sg37
I00
sg38
Nsg39
g159
sg40
Nsg41
Nsg42
I00
sg43
S'/home/grogan/Software/Chaste/projects/MicrovesselChaste/src/mesh/DiscreteContinuumMeshGenerator.hpp'
p195
sg44
I00
sba(iwrapper_utilities.class_data
CppClass
p196
(dp197
g4
Nsg5
(dp198
g7
g8
sg9
g10
sg11
g12
sg13
g14
sg15
g16
sg17
g18
sg19
g20
sS'*'
g21
sg22
g23
sg24
g23
sg25
g26
sg27
g23
ssg28
S'GridCalculator'
p199
sg30
I00
sg31
I00
sg32
Nsg33
g158
sg35
I01
sg36
I01
sg37
I00
sg38
Nsg39
g106
sg40
Nsg41
Nsg42
I00
sg43
S'/home/grogan/Software/Chaste/projects/MicrovesselChaste/src/mesh/GridCalculator.hpp'
p200
sg44
I00
sba(iwrapper_utilities.class_data
CppClass
p201
(dp202
g4
Nsg5
(dp203
g7
g8
sg9
g10
sg11
g12
sg13
g14
sg15
g16
sg17
g18
sg19
g20
sS'*'
g21
sg22
g23
sg24
g23
sg25
g26
sg27
g23
ssg28
S'MeshReader'
p204
sg30
I00
sg31
I00
sg32
Nsg33
g158
sg35
I01
sg36
I01
sg37
I00
sg38
Nsg39
Nsg40
Nsg41
Nsg42
I00
sg43
S'/home/grogan/Software/Chaste/projects/MicrovesselChaste/src/mesh/MeshReader.hpp'
p205
sg44
I00
sba(iwrapper_utilities.class_data
CppClass
p206
(dp207
g4
Nsg5
(dp208
g7
g8
sg9
g10
sg11
g12
sg13
g14
sg15
g16
sg17
g18
sg19
g20
sS'*'
g21
sg22
g23
sg24
g23
sg25
g26
sg27
g23
ssg28
S'MultiFormatMeshWriter'
p209
sg30
I00
sg31
I00
sg32
Nsg33
g158
sg35
I01
sg36
I01
sg37
I00
sg38
Nsg39
g106
sg40
Nsg41
Nsg42
I00
sg43
S'/home/grogan/Software/Chaste/projects/MicrovesselChaste/src/mesh/MultiFormatMeshWriter.hpp'
p210
sg44
I00
sba(iwrapper_utilities.class_data
CppClass
p211
(dp212
g4
Nsg5
(dp213
g7
g8
sg9
g10
sg11
g12
sg13
g14
sg15
g16
sg17
g18
sg19
g20
sS'*'
g21
sg22
g23
sg24
g23
sg25
g26
sg27
g23
ssg28
S'RegularGrid'
p214
sg30
I00
sg31
I00
sg32
Nsg33
g158
sg35
I01
sg36
I01
sg37
I00
sg38
Nsg39
g106
sg40
Nsg41
Nsg42
I00
sg43
S'/home/grogan/Software/Chaste/projects/MicrovesselChaste/src/mesh/RegularGrid.hpp'
p215
sg44
I00
sba(iwrapper_utilities.class_data
CppClass
p216
(dp217
g4
Nsg5
(dp218
g7
g8
sg9
g10
sg11
g12
sg13
g14
sg15
g16
sg17
g18
sg19
g20
sS'*'
g21
sg22
g23
sg24
g23
sg25
g26
sg27
g23
ssg28
S'RegularGridWriter'
p219
sg30
I00
sg31
I00
sg32
Nsg33
g158
sg35
I01
sg36
I01
sg37
I00
sg38
Nsg39
Nsg40
Nsg41
Nsg42
I00
sg43
S'/home/grogan/Software/Chaste/projects/MicrovesselChaste/src/mesh/RegularGridWriter.hpp'
p220
sg44
I00
sba(iwrapper_utilities.class_data
CppClass
p221
(dp222
g4
Nsg5
(dp223
g7
g8
sg9
g10
sg11
g12
sg13
g14
sg15
g16
sg17
g18
sg19
g20
sS'*'
g21
sg22
g23
sg24
g23
sg25
g26
sg27
g23
ssg28
S'MeshFormat'
p224
sg30
I00
sg31
I00
sg32
Nsg33
Nsg35
I00
sg36
I01
sg37
I00
sg38
Nsg39
Nsg40
Nsg41
Nsg42
I00
sg43
Nsg44
I00
sba(iwrapper_utilities.class_data
CppClass
p225
(dp226
g4
Nsg5
(dp227
g7
g8
sg9
g10
sg11
g12
sg13
g14
sg15
g16
sg17
g18
sg19
g20
sS'*'
g21
sg22
g23
sg24
g23
sg25
g26
sg27
g23
ssg28
g71
sg30
I00
sg31
I00
sg32
Nsg33
Nsg35
I00
sg36
I00
sg37
I01
sg38
Nsg39
(lp228
(lp229
S'std::vector<boost::shared_ptr<VesselNode<2> > >'
p230
aa(lp231
S'std::vector<boost::shared_ptr<VesselNode<3> > >'
p232
aa(lp233
S'std::vector<boost::shared_ptr<VesselSegment<2> > >'
p234
aa(lp235
S'std::vector<boost::shared_ptr<VesselSegment<3> > >'
p236
aa(lp237
S'std::vector<boost::shared_ptr<Cell> >'
p238
aa(lp239
S'DimensionalChastePoint2'
p240
aa(lp241
S'DimensionalChastePoint3'
p242
aasg40
Nsg41
Nsg42
I00
sg43
Nsg44
I00
sba(iwrapper_utilities.class_data
CppClass
p243
(dp244
g4
Nsg5
(dp245
g7
g8
sg9
g10
sg11
g12
sg13
g14
sg15
g16
sg17
g18
sg19
g20
sS'*'
g21
sg22
g23
sg24
g23
sg25
g26
sg27
g23
ssg28
g62
sg30
I00
sg31
I00
sg32
Nsg33
Nsg35
I00
sg36
I00
sg37
I01
sg38
Nsg39
(lp246
(lp247
S'DimensionalChastePoint2, DimensionalChastePoint2'
p248
aa(lp249
S'DimensionalChastePoint3, DimensionalChastePoint3'
p250
aasg40
Nsg41
Nsg42
I00
sg43
Nsg44
I00
sba(iwrapper_utilities.class_data
CppClass
p251
(dp252
g4
Nsg5
(dp253
g7
g8
sg9
g10
sg11
g12
sg13
g14
sg15
g16
sg17
g18
sg19
g20
sS'*'
g21
sg22
g23
sg24
g23
sg25
g26
sg27
g23
ssg28
S'AbstractCellKiller'
p254
sg30
I00
sg31
I00
sg32
Nsg33
Nsg35
I01
sg36
I01
sg37
I00
sg38
Nsg39
g106
sg40
Nsg41
Nsg42
I00
sg43
S'/home/grogan/Software/Chaste/cell_based/src/population/killers/AbstractCellKiller.hpp'
p255
sg44
I00
sba(iwrapper_utilities.class_data
CppClass
p256
(dp257
g4
Nsg5
(dp258
g7
g8
sg9
g10
sg11
g12
sg13
g14
sg15
g16
sg17
g18
sg19
g20
sS'*'
g21
sg22
g23
sg24
g23
sg25
g26
sg27
g23
ssg28
S'AbstractCellMutationState'
p259
sg30
I00
sg31
I00
sg32
Nsg33
S'cell'
p260
sg35
I01
sg36
I01
sg37
I00
sg38
Nsg39
Nsg40
Nsg41
Nsg42
I00
sg43
S'/home/grogan/Software/Chaste/cell_based/src/cell/properties/mutations/AbstractCellMutationState.hpp'
p261
sg44
I00
sba(iwrapper_utilities.class_data
CppClass
p262
(dp263
g4
Nsg5
(dp264
g7
g8
sg9
g10
sg11
g12
sg13
g14
sg15
g16
sg17
g18
sg19
g20
sS'*'
g21
sg22
g23
sg24
g23
sg25
g26
sg27
g23
ssg28
S'CancerCellMutationState'
p265
sg30
I00
sg31
I00
sg32
Nsg33
g260
sg35
I01
sg36
I01
sg37
I00
sg38
Nsg39
Nsg40
Nsg41
Nsg42
I00
sg43
S'/home/grogan/Software/Chaste/projects/MicrovesselChaste/src/population/cell/properties/mutations/CancerCellMutationState.hpp'
p266
sg44
I00
sba(iwrapper_utilities.class_data
CppClass
p267
(dp268
g4
Nsg5
(dp269
g7
g8
sg9
g10
sg11
g12
sg13
g14
sg15
g16
sg17
g18
sg19
g20
sS'*'
g21
sg22
g23
sg24
g23
sg25
g26
sg27
g23
ssg28
S'QuiescentCancerCellMutationState'
p270
sg30
I00
sg31
I00
sg32
Nsg33
g260
sg35
I01
sg36
I01
sg37
I00
sg38
Nsg39
Nsg40
Nsg41
Nsg42
I00
sg43
S'/home/grogan/Software/Chaste/projects/MicrovesselChaste/src/population/cell/properties/mutations/QuiescentCancerCellMutationState.hpp'
p271
sg44
I00
sba(iwrapper_utilities.class_data
CppClass
p272
(dp273
g4
Nsg5
(dp274
g7
g8
sg9
g10
sg11
g12
sg13
g14
sg15
g16
sg17
g18
sg19
g20
sS'*'
g21
sg22
g23
sg24
g23
sg25
g26
sg27
g23
ssg28
S'StalkCellMutationState'
p275
sg30
I00
sg31
I00
sg32
Nsg33
g260
sg35
I01
sg36
I01
sg37
I00
sg38
Nsg39
Nsg40
Nsg41
Nsg42
I00
sg43
S'/home/grogan/Software/Chaste/projects/MicrovesselChaste/src/population/cell/properties/mutations/StalkCellMutationState.hpp'
p276
sg44
I00
sba(iwrapper_utilities.class_data
CppClass
p277
(dp278
g4
Nsg5
(dp279
g7
g8
sg9
g10
sg11
g12
sg13
g14
sg15
g16
sg17
g18
sg19
g20
sS'*'
g21
sg22
g23
sg24
g23
sg25
g26
sg27
g23
ssg28
S'TipCellMutationState'
p280
sg30
I00
sg31
I00
sg32
Nsg33
g260
sg35
I01
sg36
I01
sg37
I00
sg38
Nsg39
Nsg40
Nsg41
Nsg42
I00
sg43
S'/home/grogan/Software/Chaste/projects/MicrovesselChaste/src/population/cell/properties/mutations/TipCellMutationState.hpp'
p281
sg44
I00
sba(iwrapper_utilities.class_data
CppClass
p282
(dp283
g4
Nsg5
(dp284
g7
g8
sg9
g10
sg11
g12
sg13
g14
sg15
g16
sg17
g18
sg19
g20
sS'*'
g21
sg22
g23
sg24
g23
sg25
g26
sg27
g23
ssg28
S'VesselCellMutationState'
p285
sg30
I00
sg31
I00
sg32
Nsg33
g260
sg35
I01
sg36
I01
sg37
I00
sg38
Nsg39
Nsg40
Nsg41
Nsg42
I00
sg43
S'/home/grogan/Software/Chaste/projects/MicrovesselChaste/src/population/cell/properties/mutations/VesselCellMutationState.hpp'
p286
sg44
I00
sba(iwrapper_utilities.class_data
CppClass
p287
(dp288
g4
Nsg5
(dp289
g7
g8
sg9
g10
sg11
g12
sg13
g14
sg15
g16
sg17
g18
sg19
g20
sS'*'
g21
sg22
g23
sg24
g23
sg25
g26
sg27
g23
ssg28
S'MacrophageMutationState'
p290
sg30
I00
sg31
I00
sg32
Nsg33
g260
sg35
I01
sg36
I01
sg37
I00
sg38
Nsg39
Nsg40
Nsg41
Nsg42
I00
sg43
S'/home/grogan/Software/Chaste/projects/MicrovesselChaste/src/population/cell/properties/mutations/MacrophageMutationState.hpp'
p291
sg44
I00
sba(iwrapper_utilities.class_data
CppClass
p292
(dp293
g4
Nsg5
(dp294
g7
g8
sg9
g10
sg11
g12
sg13
g14
sg15
g16
sg17
g18
sg19
g20
sS'*'
g21
sg22
g23
sg24
g23
sg25
g26
sg27
g23
ssg28
S'Owen2011OxygenBasedCellCycleModel'
p295
sg30
I00
sg31
I00
sg32
Nsg33
g260
sg35
I01
sg36
I01
sg37
I00
sg38
Nsg39
Nsg40
Nsg41
Nsg42
I00
sg43
S'/home/grogan/Software/Chaste/projects/MicrovesselChaste/src/population/cell/cycle/Owen2011OxygenBasedCellCycleModel.hpp'
p296
sg44
I00
sba(iwrapper_utilities.class_data
CppClass
p297
(dp298
g4
Nsg5
(dp299
g7
g8
sg9
g10
sg11
g12
sg13
g14
sg15
g16
sg17
g18
sg19
g20
sS'*'
g21
sg22
g23
sg24
g23
sg25
g26
sg27
g23
ssg28
S'Owen11CellPopulationGenerator'
p300
sg30
I00
sg31
I00
sg32
Nsg33
g260
sg35
I01
sg36
I01
sg37
I00
sg38
Nsg39
g106
sg40
Nsg41
Nsg42
I00
sg43
S'/home/grogan/Software/Chaste/projects/MicrovesselChaste/src/population/cell/Owen11CellPopulationGenerator.hpp'
p301
sg44
I00
sba(iwrapper_utilities.class_data
CppClass
p302
(dp303
g4
Nsg5
(dp304
g7
g8
sg9
g10
sg11
g12
sg13
g14
sg15
g16
sg17
g18
sg19
g20
sS'*'
g21
sg22
g23
sg24
g23
sg25
g26
sg27
g23
ssg28
S'CaBasedCellPopulation'
p305
sg30
I00
sg31
I00
sg32
Nsg33
Nsg35
I01
sg36
I01
sg37
I00
sg38
Nsg39
g106
sg40
Nsg41
Nsg42
I00
sg43
S'/home/grogan/Software/Chaste/cell_based/src/population/CaBasedCellPopulation.hpp'
p306
sg44
I00
sba(iwrapper_utilities.class_data
CppClass
p307
(dp308
g4
Nsg5
(dp309
g7
g8
sg9
g10
sg11
g12
sg13
g14
sg15
g16
sg17
g18
sg19
g20
sS'*'
g21
sg22
g23
sg24
g23
sg25
g26
sg27
g23
ssg28
S'LQRadiotherapyCellKiller'
p310
sg30
I00
sg31
I00
sg32
Nsg33
g260
sg35
I01
sg36
I01
sg37
I00
sg38
Nsg39
g106
sg40
Nsg41
Nsg42
I00
sg43
S'/home/grogan/Software/Chaste/projects/MicrovesselChaste/src/population/cell/killers/LQRadiotherapyCellKiller.hpp'
p311
sg44
I00
sba(iwrapper_utilities.class_data
CppClass
p312
(dp313
g4
Nsg5
(dp314
g7
g8
sg9
g10
sg11
g12
sg13
g14
sg15
g16
sg17
g18
sg19
g20
sS'*'
g21
sg22
g23
sg24
g23
sg25
g26
sg27
g23
ssg28
S'Owen11CaBasedDivisionRule'
p315
sg30
I00
sg31
I00
sg32
Nsg33
g260
sg35
I01
sg36
I01
sg37
I00
sg38
Nsg39
g106
sg40
Nsg41
Nsg42
I00
sg43
S'/home/grogan/Software/Chaste/projects/MicrovesselChaste/src/population/cell/Owen11CaBasedDivisionRule.hpp'
p316
sg44
I00
sba(iwrapper_utilities.class_data
CppClass
p317
(dp318
g4
Nsg5
(dp319
g7
g8
sg9
g10
sg11
g12
sg13
g14
sg15
g16
sg17
g18
sg19
g20
sS'*'
g21
sg22
g23
sg24
g23
sg25
g26
sg27
g23
ssg28
S'Owen11CaUpdateRule'
p320
sg30
I00
sg31
I00
sg32
Nsg33
g260
sg35
I01
sg36
I01
sg37
I00
sg38
Nsg39
g106
sg40
Nsg41
Nsg42
I00
sg43
S'/home/grogan/Software/Chaste/projects/MicrovesselChaste/src/population/cell/Owen11CaUpdateRule.hpp'
p321
sg44
I00
sba(iwrapper_utilities.class_data
CppClass
p322
(dp323
g4
Nsg5
(dp324
g7
g8
sg9
g10
sg11
g12
sg13
g14
sg15
g16
sg17
g18
sg19
g20
sS'*'
g21
sg22
g23
sg24
g23
sg25
g26
sg27
g23
ssg28
S'TipAttractionLatticeBasedMigrationRule'
p325
sg30
I00
sg31
I00
sg32
Nsg33
S'angiogenesis'
p326
sg35
I01
sg36
I01
sg37
I00
sg38
Nsg39
g106
sg40
Nsg41
Nsg42
I00
sg43
S'/home/grogan/Software/Chaste/projects/MicrovesselChaste/src/simulation/angiogenesis/migration_rules/lattice/TipAttractionLatticeBasedMigrationRule.hpp'
p327
sg44
I00
sba(iwrapper_utilities.class_data
CppClass
p328
(dp329
g4
Nsg5
(dp330
g7
g8
sg9
g10
sg11
g12
sg13
g14
sg15
g16
sg17
g18
sg19
g20
sS'*'
g21
sg22
g23
sg24
g23
sg25
g26
sg27
g23
ssg28
S'AngiogenesisSolver'
p331
sg30
I00
sg31
I00
sg32
Nsg33
g326
sg35
I01
sg36
I01
sg37
I00
sg38
Nsg39
g106
sg40
Nsg41
Nsg42
I00
sg43
S'/home/grogan/Software/Chaste/projects/MicrovesselChaste/src/simulation/angiogenesis/AngiogenesisSolver.hpp'
p332
sg44
I00
sba(iwrapper_utilities.class_data
CppClass
p333
(dp334
g4
Nsg5
(dp335
g7
g8
sg9
g10
sg11
g12
sg13
g14
sg15
g16
sg17
g18
sg19
g20
sS'*'
g21
sg22
g23
sg24
g23
sg25
g26
sg27
g23
ssg28
S'Owen2011MigrationRule'
p336
sg30
I00
sg31
I00
sg32
Nsg33
g326
sg35
I01
sg36
I01
sg37
I00
sg38
Nsg39
g106
sg40
Nsg41
Nsg42
I00
sg43
S'/home/grogan/Software/Chaste/projects/MicrovesselChaste/src/simulation/angiogenesis/migration_rules/lattice/Owen2011MigrationRule.hpp'
p337
sg44
I00
sba(iwrapper_utilities.class_data
CppClass
p338
(dp339
g4
Nsg5
(dp340
g7
g8
sg9
g10
sg11
g12
sg13
g14
sg15
g16
sg17
g18
sg19
g20
sS'*'
g21
sg22
g23
sg24
g23
sg25
g26
sg27
g23
ssg28
S'Owen2011SproutingRule'
p341
sg30
I00
sg31
I00
sg32
Nsg33
g326
sg35
I01
sg36
I01
sg37
I00
sg38
Nsg39
g106
sg40
Nsg41
Nsg42
I00
sg43
S'/home/grogan/Software/Chaste/projects/MicrovesselChaste/src/simulation/angiogenesis/sprouting_rules/Owen2011SproutingRule.hpp'
p342
sg44
I00
sba(iwrapper_utilities.class_data
CppClass
p343
(dp344
g4
Nsg5
(dp345
g7
g8
sg9
g10
sg11
g12
sg13
g14
sg15
g16
sg17
g18
sg19
g20
sS'*'
g21
sg22
g23
sg24
g23
sg25
g26
sg27
g23
ssg28
S'OffLatticeMigrationRule'
p346
sg30
I00
sg31
I00
sg32
Nsg33
g326
sg35
I01
sg36
I01
sg37
I00
sg38
Nsg39
g106
sg40
Nsg41
Nsg42
I00
sg43
S'/home/grogan/Software/Chaste/projects/MicrovesselChaste/src/simulation/angiogenesis/migration_rules/off_lattice/OffLatticeMigrationRule.hpp'
p347
sg44
I00
sba(iwrapper_utilities.class_data
CppClass
p348
(dp349
g4
Nsg5
(dp350
g7
g8
sg9
g10
sg11
g12
sg13
g14
sg15
g16
sg17
g18
sg19
g20
sS'*'
g21
sg22
g23
sg24
g23
sg25
g26
sg27
g23
ssg28
S'OffLatticeSproutingRule'
p351
sg30
I00
sg31
I00
sg32
Nsg33
g326
sg35
I01
sg36
I01
sg37
I00
sg38
Nsg39
g106
sg40
Nsg41
Nsg42
I00
sg43
S'/home/grogan/Software/Chaste/projects/MicrovesselChaste/src/simulation/angiogenesis/sprouting_rules/OffLatticeSproutingRule.hpp'
p352
sg44
I00
sba(iwrapper_utilities.class_data
CppClass
p353
(dp354
g4
Nsg5
(dp355
g7
g8
sg9
g10
sg11
g12
sg13
g14
sg15
g16
sg17
g18
sg19
g20
sS'*'
g21
sg22
g23
sg24
g23
sg25
g26
sg27
g23
ssg28
S'AbstractMigrationRule'
p356
sg30
I00
sg31
I00
sg32
Nsg33
g326
sg35
I01
sg36
I01
sg37
I00
sg38
Nsg39
g106
sg40
Nsg41
Nsg42
I00
sg43
S'/home/grogan/Software/Chaste/projects/MicrovesselChaste/src/simulation/angiogenesis/migration_rules/AbstractMigrationRule.hpp'
p357
sg44
I00
sba(iwrapper_utilities.class_data
CppClass
p358
(dp359
g4
Nsg5
(dp360
g7
g8
sg9
g10
sg11
g12
sg13
g14
sg15
g16
sg17
g18
sg19
g20
sS'*'
g21
sg22
g23
sg24
g23
sg25
g26
sg27
g23
ssg28
S'AbstractSproutingRule'
p361
sg30
I00
sg31
I00
sg32
Nsg33
g326
sg35
I01
sg36
I01
sg37
I00
sg38
Nsg39
g106
sg40
Nsg41
Nsg42
I00
sg43
S'/home/grogan/Software/Chaste/projects/MicrovesselChaste/src/simulation/angiogenesis/sprouting_rules/AbstractSproutingRule.hpp'
p362
sg44
I00
sba(iwrapper_utilities.class_data
CppClass
p363
(dp364
g4
Nsg5
(dp365
g7
g8
sg9
g10
sg11
g12
sg13
g14
sg15
g16
sg17
g18
sg19
g20
sS'*'
g21
sg22
g23
sg24
g23
sg25
g26
sg27
g23
ssg28
S'LatticeBasedMigrationRule'
p366
sg30
I00
sg31
I00
sg32
Nsg33
g326
sg35
I01
sg36
I01
sg37
I00
sg38
Nsg39
g106
sg40
Nsg41
Nsg42
I00
sg43
S'/home/grogan/Software/Chaste/projects/MicrovesselChaste/src/simulation/angiogenesis/migration_rules/lattice/LatticeBasedMigrationRule.hpp'
p367
sg44
I00
sba(iwrapper_utilities.class_data
CppClass
p368
(dp369
g4
Nsg5
(dp370
g7
g8
sg9
g10
sg11
g12
sg13
g14
sg15
g16
sg17
g18
sg19
g20
sS'*'
g21
sg22
g23
sg24
g23
sg25
g26
sg27
g23
ssg28
S'CellPopulationMigrationRule'
p371
sg30
I00
sg31
I00
sg32
Nsg33
g326
sg35
I01
sg36
I01
sg37
I00
sg38
Nsg39
g106
sg40
Nsg41
Nsg42
I00
sg43
S'/home/grogan/Software/Chaste/projects/MicrovesselChaste/src/simulation/angiogenesis/migration_rules/lattice/CellPopulationMigrationRule.hpp'
p372
sg44
I00
sba(iwrapper_utilities.class_data
CppClass
p373
(dp374
g4
Nsg5
(dp375
g7
g8
sg9
g10
sg11
g12
sg13
g14
sg15
g16
sg17
g18
sg19
g20
sS'*'
g21
sg22
g23
sg24
g23
sg25
g26
sg27
g23
ssg28
S'RegressionSolver'
p376
sg30
I00
sg31
I00
sg32
Nsg33
g326
sg35
I01
sg36
I01
sg37
I00
sg38
Nsg39
g106
sg40
Nsg41
Nsg42
I00
sg43
S'/home/grogan/Software/Chaste/projects/MicrovesselChaste/src/simulation/angiogenesis/regression/RegressionSolver.hpp'
p377
sg44
I00
sba(iwrapper_utilities.class_data
CppClass
p378
(dp379
g4
Nsg5
(dp380
g7
g8
sg9
g10
sg11
g12
sg13
g14
sg15
g16
sg17
g18
sg19
g20
sS'*'
g21
sg22
g23
sg24
g23
sg25
g26
sg27
g23
ssg28
S'WallShearStressBasedRegressionSolver'
p381
sg30
I00
sg31
I00
sg32
Nsg33
g326
sg35
I01
sg36
I01
sg37
I00
sg38
Nsg39
g106
sg40
Nsg41
Nsg42
I00
sg43
S'/home/grogan/Software/Chaste/projects/MicrovesselChaste/src/simulation/angiogenesis/regression/WallShearStressBasedRegressionSolver.hpp'
p382
sg44
I00
sba(iwrapper_utilities.class_data
CppClass
p383
(dp384
g4
Nsg5
(dp385
g7
g8
sg9
g10
sg11
g12
sg13
g14
sg15
g16
sg17
g18
sg19
g20
sS'*'
g21
sg22
g23
sg24
g23
sg25
g26
sg27
g23
ssg28
S'LatticeBasedSproutingRule'
p386
sg30
I00
sg31
I00
sg32
Nsg33
g326
sg35
I01
sg36
I01
sg37
I00
sg38
Nsg39
g106
sg40
Nsg41
Nsg42
I00
sg43
S'/home/grogan/Software/Chaste/projects/MicrovesselChaste/src/simulation/angiogenesis/sprouting_rules/LatticeBasedSproutingRule.hpp'
p387
sg44
I00
sba(iwrapper_utilities.class_data
CppClass
p388
(dp389
g4
Nsg5
(dp390
g7
g8
sg9
g10
sg11
g12
sg13
g14
sg15
g16
sg17
g18
sg19
g20
sS'*'
g21
sg22
g23
sg24
g23
sg25
g26
sg27
g23
ssg28
S'DiscreteContinuumBoundaryCondition'
p391
sg30
I00
sg31
I00
sg32
Nsg33
S'pde'
p392
sg35
I01
sg36
I01
sg37
I00
sg38
Nsg39
g106
sg40
Nsg41
Nsg42
I00
sg43
S'/home/grogan/Software/Chaste/projects/MicrovesselChaste/src/pde/boundary_conditions/DiscreteContinuumBoundaryCondition.hpp'
p393
sg44
I00
sba(iwrapper_utilities.class_data
CppClass
p394
(dp395
g4
Nsg5
(dp396
g7
g8
sg9
g10
sg11
g12
sg13
g14
sg15
g16
sg17
g18
sg19
g20
sS'*'
g21
sg22
g23
sg24
g23
sg25
g26
sg27
g23
ssg28
S'BoundaryConditionType'
p397
sg30
I00
sg31
I00
sg32
Nsg33
g392
sg35
I00
sg36
I01
sg37
I00
sg38
Nsg39
Nsg40
Nsg41
Nsg42
I00
sg43
Nsg44
I00
sba(iwrapper_utilities.class_data
CppClass
p398
(dp399
g4
Nsg5
(dp400
g7
g8
sg9
g10
sg11
g12
sg13
g14
sg15
g16
sg17
g18
sg19
g20
sS'*'
g21
sg22
g23
sg24
g23
sg25
g26
sg27
g23
ssg28
S'BoundaryConditionSource'
p401
sg30
I00
sg31
I00
sg32
Nsg33
g392
sg35
I00
sg36
I01
sg37
I00
sg38
Nsg39
Nsg40
Nsg41
Nsg42
I00
sg43
Nsg44
I00
sba(iwrapper_utilities.class_data
CppClass
p402
(dp403
g4
Nsg5
(dp404
g7
g8
sg9
g10
sg11
g12
sg13
g14
sg15
g16
sg17
g18
sg19
g20
sS'*'
g21
sg22
g23
sg24
g23
sg25
g26
sg27
g23
ssg28
S'DiscreteSource'
p405
sg30
I00
sg31
I00
sg32
Nsg33
g392
sg35
I01
sg36
I01
sg37
I00
sg38
Nsg39
g106
sg40
Nsg41
Nsg42
I01
sg43
S'/home/grogan/Software/Chaste/projects/MicrovesselChaste/src/pde/discrete_sources/DiscreteSource.hpp'
p406
sg44
I00
sba(iwrapper_utilities.class_data
CppClass
p407
(dp408
g4
Nsg5
(dp409
g7
g8
sg9
g10
sg11
g12
sg13
g14
sg15
g16
sg17
g18
sg19
g20
sS'*'
g21
sg22
g23
sg24
g23
sg25
g26
sg27
g23
ssg28
S'CellStateDependentDiscreteSource'
p410
sg30
I00
sg31
I00
sg32
Nsg33
g392
sg35
I01
sg36
I01
sg37
I00
sg38
Nsg39
g106
sg40
Nsg41
Nsg42
I00
sg43
S'/home/grogan/Software/Chaste/projects/MicrovesselChaste/src/pde/discrete_sources/CellStateDependentDiscreteSource.hpp'
p411
sg44
I00
sba(iwrapper_utilities.class_data
CppClass
p412
(dp413
g4
Nsg5
(dp414
g7
g8
sg9
g10
sg11
g12
sg13
g14
sg15
g16
sg17
g18
sg19
g20
sS'*'
g21
sg22
g23
sg24
g23
sg25
g26
sg27
g23
ssg28
S'CellBasedDiscreteSource'
p415
sg30
I00
sg31
I00
sg32
Nsg33
g392
sg35
I01
sg36
I01
sg37
I00
sg38
Nsg39
g106
sg40
Nsg41
Nsg42
I00
sg43
S'/home/grogan/Software/Chaste/projects/MicrovesselChaste/src/pde/discrete_sources/CellBasedDiscreteSource.hpp'
p416
sg44
I00
sba(iwrapper_utilities.class_data
CppClass
p417
(dp418
g4
Nsg5
(dp419
g7
g8
sg9
g10
sg11
g12
sg13
g14
sg15
g16
sg17
g18
sg19
g20
sS'*'
g21
sg22
g23
sg24
g23
sg25
g26
sg27
g23
ssg28
S'SolutionDependentDiscreteSource'
p420
sg30
I00
sg31
I00
sg32
Nsg33
g392
sg35
I01
sg36
I01
sg37
I00
sg38
Nsg39
g106
sg40
Nsg41
Nsg42
I00
sg43
S'/home/grogan/Software/Chaste/projects/MicrovesselChaste/src/pde/discrete_sources/SolutionDependentDiscreteSource.hpp'
p421
sg44
I00
sba(iwrapper_utilities.class_data
CppClass
p422
(dp423
g4
Nsg5
(dp424
g7
g8
sg9
g10
sg11
g12
sg13
g14
sg15
g16
sg17
g18
sg19
g20
sS'*'
g21
sg22
g23
sg24
g23
sg25
g26
sg27
g23
ssg28
S'VesselBasedDiscreteSource'
p425
sg30
I00
sg31
I00
sg32
Nsg33
g392
sg35
I01
sg36
I01
sg37
I00
sg38
Nsg39
g106
sg40
Nsg41
Nsg42
I00
sg43
S'/home/grogan/Software/Chaste/projects/MicrovesselChaste/src/pde/discrete_sources/VesselBasedDiscreteSource.hpp'
p426
sg44
I00
sba(iwrapper_utilities.class_data
CppClass
p427
(dp428
g4
Nsg5
(dp429
g7
g8
sg9
g10
sg11
g12
sg13
g14
sg15
g16
sg17
g18
sg19
g20
sS'*'
g21
sg22
g23
sg24
g23
sg25
g26
sg27
g23
ssg28
S'AbstractDiscreteContinuumPde'
p430
sg30
I00
sg31
I00
sg32
Nsg33
g392
sg35
I01
sg36
I01
sg37
I00
sg38
Nsg39
g159
sg40
Nsg41
Nsg42
I00
sg43
S'/home/grogan/Software/Chaste/projects/MicrovesselChaste/src/pde/problem/AbstractDiscreteContinuumPde.hpp'
p431
sg44
I00
sba(iwrapper_utilities.class_data
CppClass
p432
(dp433
g4
Nsg5
(dp434
g7
g8
sg9
g10
sg11
g12
sg13
g14
sg15
g16
sg17
g18
sg19
g20
sS'*'
g21
sg22
g23
sg24
g23
sg25
g26
sg27
g23
ssg28
S'AbstractDiscreteContinuumLinearEllipticPde'
p435
sg30
I00
sg31
I00
sg32
Nsg33
g392
sg35
I01
sg36
I01
sg37
I00
sg38
Nsg39
g159
sg40
Nsg41
Nsg42
I00
sg43
S'/home/grogan/Software/Chaste/projects/MicrovesselChaste/src/pde/problem/linear_elliptic/AbstractDiscreteContinuumLinearEllipticPde.hpp'
p436
sg44
I00
sba(iwrapper_utilities.class_data
CppClass
p437
(dp438
g4
Nsg5
(dp439
g7
g8
sg9
g10
sg11
g12
sg13
g14
sg15
g16
sg17
g18
sg19
g20
sS'*'
g21
sg22
g23
sg24
g23
sg25
g26
sg27
g23
ssg28
S'DiscreteContinuumLinearEllipticPde'
p440
sg30
I00
sg31
I00
sg32
Nsg33
g392
sg35
I01
sg36
I01
sg37
I00
sg38
Nsg39
g159
sg40
Nsg41
Nsg42
I00
sg43
S'/home/grogan/Software/Chaste/projects/MicrovesselChaste/src/pde/problem/linear_elliptic/DiscreteContinuumLinearEllipticPde.hpp'
p441
sg44
I00
sba(iwrapper_utilities.class_data
CppClass
p442
(dp443
g4
Nsg5
(dp444
g7
g8
sg9
g10
sg11
g12
sg13
g14
sg15
g16
sg17
g18
sg19
g20
sS'*'
g21
sg22
g23
sg24
g23
sg25
g26
sg27
g23
ssg28
S'AbstractDiscreteContinuumNonLinearEllipticPde'
p445
sg30
I00
sg31
I00
sg32
Nsg33
g392
sg35
I01
sg36
I01
sg37
I00
sg38
Nsg39
g159
sg40
Nsg41
Nsg42
I00
sg43
S'/home/grogan/Software/Chaste/projects/MicrovesselChaste/src/pde/problem/nonlinear_elliptic/AbstractDiscreteContinuumNonLinearEllipticPde.hpp'
p446
sg44
I00
sba(iwrapper_utilities.class_data
CppClass
p447
(dp448
g4
Nsg5
(dp449
g7
g8
sg9
g10
sg11
g12
sg13
g14
sg15
g16
sg17
g18
sg19
g20
sS'*'
g21
sg22
g23
sg24
g23
sg25
g26
sg27
g23
ssg28
S'MichaelisMentenSteadyStateDiffusionReactionPde'
p450
sg30
I00
sg31
I00
sg32
Nsg33
g392
sg35
I01
sg36
I01
sg37
I00
sg38
Nsg39
g159
sg40
Nsg41
Nsg42
I00
sg43
S'/home/grogan/Software/Chaste/projects/MicrovesselChaste/src/pde/problem/nonlinear_elliptic/MichaelisMentenSteadyStateDiffusionReactionPde.hpp'
p451
sg44
I00
sba(iwrapper_utilities.class_data
CppClass
p452
(dp453
g4
Nsg5
(dp454
g7
g8
sg9
g10
sg11
g12
sg13
g14
sg15
g16
sg17
g18
sg19
g20
sS'*'
g21
sg22
g23
sg24
g23
sg25
g26
sg27
g23
ssg28
S'AbstractDiscreteContinuumParabolicPde'
p455
sg30
I00
sg31
I00
sg32
Nsg33
g392
sg35
I01
sg36
I01
sg37
I00
sg38
Nsg39
g159
sg40
Nsg41
Nsg42
I00
sg43
S'/home/grogan/Software/Chaste/projects/MicrovesselChaste/src/pde/problem/parabolic/AbstractDiscreteContinuumParabolicPde.hpp'
p456
sg44
I00
sba(iwrapper_utilities.class_data
CppClass
p457
(dp458
g4
Nsg5
(dp459
g7
g8
sg9
g10
sg11
g12
sg13
g14
sg15
g16
sg17
g18
sg19
g20
sS'*'
g21
sg22
g23
sg24
g23
sg25
g26
sg27
g23
ssg28
S'ParabolicDiffusionReactionPde'
p460
sg30
I00
sg31
I00
sg32
Nsg33
g392
sg35
I01
sg36
I01
sg37
I00
sg38
Nsg39
g159
sg40
Nsg41
Nsg42
I00
sg43
S'/home/grogan/Software/Chaste/projects/MicrovesselChaste/src/pde/problem/parabolic/ParabolicDiffusionReactionPde.hpp'
p461
sg44
I00
sba(iwrapper_utilities.class_data
CppClass
p462
(dp463
g4
Nsg5
(dp464
g7
g8
sg9
g10
sg11
g12
sg13
g14
sg15
g16
sg17
g18
sg19
g20
sS'*'
g21
sg22
g23
sg24
g23
sg25
g26
sg27
g23
ssg28
S'CoupledVegfPelletDiffusionReactionPde'
p465
sg30
I00
sg31
I00
sg32
Nsg33
g392
sg35
I01
sg36
I01
sg37
I00
sg38
Nsg39
g159
sg40
Nsg41
Nsg42
I00
sg43
S'/home/grogan/Software/Chaste/projects/MicrovesselChaste/src/pde/problem/parabolic/CoupledVegfPelletDiffusionReactionPde.hpp'
p466
sg44
I00
sba(iwrapper_utilities.class_data
CppClass
p467
(dp468
g4
Nsg5
(dp469
g7
g8
sg9
g10
sg11
g12
sg13
g14
sg15
g16
sg17
g18
sg19
g20
sS'*'
g21
sg22
g23
sg24
g23
sg25
g26
sg27
g23
ssg28
S'AbstractDiscreteContinuumSolver'
p470
sg30
I00
sg31
I00
sg32
Nsg33
g392
sg35
I01
sg36
I01
sg37
I00
sg38
Nsg39
g106
sg40
Nsg41
Nsg42
I01
sg43
S'/home/grogan/Software/Chaste/projects/MicrovesselChaste/src/pde/solvers/AbstractDiscreteContinuumSolver.hpp'
p471
sg44
I00
sba(iwrapper_utilities.class_data
CppClass
p472
(dp473
g4
Nsg5
(dp474
g7
g8
sg9
g10
sg11
g12
sg13
g14
sg15
g16
sg17
g18
sg19
g20
sS'*'
g21
sg22
g23
sg24
g23
sg25
g26
sg27
g23
ssg28
S'AbstractRegularGridDiscreteContinuumSolver'
p475
sg30
I00
sg31
I00
sg32
Nsg33
g392
sg35
I01
sg36
I01
sg37
I00
sg38
Nsg39
g106
sg40
Nsg41
Nsg42
I00
sg43
S'/home/grogan/Software/Chaste/projects/MicrovesselChaste/src/pde/solvers/AbstractRegularGridDiscreteContinuumSolver.hpp'
p476
sg44
I00
sba(iwrapper_utilities.class_data
CppClass
p477
(dp478
g4
Nsg5
(dp479
g7
g8
sg9
g10
sg11
g12
sg13
g14
sg15
g16
sg17
g18
sg19
g20
sS'*'
g21
sg22
g23
sg24
g23
sg25
g26
sg27
g23
ssg28
S'AbstractUnstructuredGridDiscreteContinuumSolver'
p480
sg30
I00
sg31
I00
sg32
Nsg33
g392
sg35
I01
sg36
I01
sg37
I00
sg38
Nsg39
g106
sg40
Nsg41
Nsg42
I00
sg43
S'/home/grogan/Software/Chaste/projects/MicrovesselChaste/src/pde/solvers/AbstractUnstructuredGridDiscreteContinuumSolver.hpp'
p481
sg44
I00
sba(iwrapper_utilities.class_data
CppClass
p482
(dp483
g4
Nsg5
(dp484
g7
g8
sg9
g10
sg11
g12
sg13
g14
sg15
g16
sg17
g18
sg19
g20
sS'*'
g21
sg22
g23
sg24
g23
sg25
g26
sg27
g23
ssg28
S'AbstractMixedGridDiscreteContinuumSolver'
p485
sg30
I00
sg31
I00
sg32
Nsg33
g392
sg35
I01
sg36
I01
sg37
I00
sg38
Nsg39
g106
sg40
Nsg41
Nsg42
I00
sg43
S'/home/grogan/Software/Chaste/projects/MicrovesselChaste/src/pde/solvers/AbstractMixedGridDiscreteContinuumSolver.hpp'
p486
sg44
I00
sba(iwrapper_utilities.class_data
CppClass
p487
(dp488
g4
Nsg5
(dp489
g7
g8
sg9
g10
sg11
g12
sg13
g14
sg15
g16
sg17
g18
sg19
g20
sS'*'
g21
sg22
g23
sg24
g23
sg25
g26
sg27
g23
ssg28
S'AbstractFiniteDifferenceSolverBase'
p490
sg30
I00
sg31
I00
sg32
Nsg33
g392
sg35
I01
sg36
I01
sg37
I00
sg38
Nsg39
g106
sg40
Nsg41
Nsg42
I00
sg43
S'/home/grogan/Software/Chaste/projects/MicrovesselChaste/src/pde/solvers/finite_difference/AbstractFiniteDifferenceSolverBase.hpp'
p491
sg44
I00
sba(iwrapper_utilities.class_data
CppClass
p492
(dp493
g4
Nsg5
(dp494
g7
g8
sg9
g10
sg11
g12
sg13
g14
sg15
g16
sg17
g18
sg19
g20
sS'*'
g21
sg22
g23
sg24
g23
sg25
g26
sg27
g23
ssg28
S'CoupledLumpedSystemFiniteDifferenceSolver'
p495
sg30
I00
sg31
I00
sg32
Nsg33
g392
sg35
I01
sg36
I01
sg37
I00
sg38
Nsg39
g106
sg40
Nsg41
Nsg42
I00
sg43
S'/home/grogan/Software/Chaste/projects/MicrovesselChaste/src/pde/solvers/finite_difference/CoupledLumpedSystemFiniteDifferenceSolver.hpp'
p496
sg44
I00
sba(iwrapper_utilities.class_data
CppClass
p497
(dp498
g4
Nsg5
(dp499
g7
g8
sg9
g10
sg11
g12
sg13
g14
sg15
g16
sg17
g18
sg19
g20
sS'*'
g21
sg22
g23
sg24
g23
sg25
g26
sg27
g23
ssg28
S'SimpleLinearEllipticFiniteDifferenceSolver'
p500
sg30
I00
sg31
I00
sg32
Nsg33
g392
sg35
I01
sg36
I01
sg37
I00
sg38
Nsg39
g106
sg40
Nsg41
Nsg42
I00
sg43
S'/home/grogan/Software/Chaste/projects/MicrovesselChaste/src/pde/solvers/finite_difference/SimpleLinearEllipticFiniteDifferenceSolver.hpp'
p501
sg44
I00
sba(iwrapper_utilities.class_data
CppClass
p502
(dp503
g4
Nsg5
(dp504
g7
g8
sg9
g10
sg11
g12
sg13
g14
sg15
g16
sg17
g18
sg19
g20
sS'*'
g21
sg22
g23
sg24
g23
sg25
g26
sg27
g23
ssg28
S'SimpleNonLinearEllipticFiniteDifferenceSolver'
p505
sg30
I00
sg31
I00
sg32
Nsg33
g392
sg35
I01
sg36
I01
sg37
I00
sg38
Nsg39
g106
sg40
Nsg41
Nsg42
I00
sg43
S'/home/grogan/Software/Chaste/projects/MicrovesselChaste/src/pde/solvers/finite_difference/SimpleNonLinearEllipticFiniteDifferenceSolver.hpp'
p506
sg44
I00
sba(iwrapper_utilities.class_data
CppClass
p507
(dp508
g4
Nsg5
(dp509
g7
g8
sg9
g10
sg11
g12
sg13
g14
sg15
g16
sg17
g18
sg19
g20
sS'*'
g21
sg22
g23
sg24
g23
sg25
g26
sg27
g23
ssg28
S'AbstractFiniteElementSolverBase'
p510
sg30
I00
sg31
I00
sg32
Nsg33
g392
sg35
I01
sg36
I01
sg37
I00
sg38
Nsg39
g106
sg40
Nsg41
Nsg42
I00
sg43
S'/home/grogan/Software/Chaste/projects/MicrovesselChaste/src/pde/solvers/finite_element/AbstractFiniteElementSolverBase.hpp'
p511
sg44
I00
sba(iwrapper_utilities.class_data
CppClass
p512
(dp513
g4
Nsg5
(dp514
g7
g8
sg9
g10
sg11
g12
sg13
g14
sg15
g16
sg17
g18
sg19
g20
sS'*'
g21
sg22
g23
sg24
g23
sg25
g26
sg27
g23
ssg28
S'CoupledLumpedSystemFiniteElementSolver'
p515
sg30
I00
sg31
I00
sg32
Nsg33
g392
sg35
I01
sg36
I01
sg37
I00
sg38
Nsg39
g106
sg40
Nsg41
Nsg42
I00
sg43
S'/home/grogan/Software/Chaste/projects/MicrovesselChaste/src/pde/solvers/finite_element/CoupledLumpedSystemFiniteElementSolver.hpp'
p516
sg44
I00
sba(iwrapper_utilities.class_data
CppClass
p517
(dp518
g4
Nsg5
(dp519
g7
g8
sg9
g10
sg11
g12
sg13
g14
sg15
g16
sg17
g18
sg19
g20
sS'*'
g21
sg22
g23
sg24
g23
sg25
g26
sg27
g23
ssg28
S'SimpleLinearEllipticFiniteElementSolver'
p520
sg30
I00
sg31
I00
sg32
Nsg33
g392
sg35
I01
sg36
I01
sg37
I00
sg38
Nsg39
g106
sg40
Nsg41
Nsg42
I00
sg43
S'/home/grogan/Software/Chaste/projects/MicrovesselChaste/src/pde/solvers/finite_element/SimpleLinearEllipticFiniteElementSolver.hpp'
p521
sg44
I00
sba(iwrapper_utilities.class_data
CppClass
p522
(dp523
g4
Nsg5
(dp524
g7
g8
sg9
g10
sg11
g12
sg13
g14
sg15
g16
sg17
g18
sg19
g20
sS'*'
g21
sg22
g23
sg24
g23
sg25
g26
sg27
g23
ssg28
S'SimpleNonLinearEllipticFiniteElementSolver'
p525
sg30
I00
sg31
I00
sg32
Nsg33
g392
sg35
I01
sg36
I01
sg37
I00
sg38
Nsg39
g106
sg40
Nsg41
Nsg42
I00
sg43
S'/home/grogan/Software/Chaste/projects/MicrovesselChaste/src/pde/solvers/finite_element/SimpleNonLinearEllipticFiniteElementSolver.hpp'
p526
sg44
I00
sba(iwrapper_utilities.class_data
CppClass
p527
(dp528
g4
Nsg5
(dp529
g7
g8
sg9
g10
sg11
g12
sg13
g14
sg15
g16
sg17
g18
sg19
g20
sS'*'
g21
sg22
g23
sg24
g23
sg25
g26
sg27
g23
ssg28
S'SimpleParabolicFiniteElementSolver'
p530
sg30
I00
sg31
I00
sg32
Nsg33
g392
sg35
I01
sg36
I01
sg37
I00
sg38
Nsg39
g106
sg40
Nsg41
Nsg42
I00
sg43
S'/home/grogan/Software/Chaste/projects/MicrovesselChaste/src/pde/solvers/finite_element/SimpleParabolicFiniteElementSolver.hpp'
p531
sg44
I00
sba(iwrapper_utilities.class_data
CppClass
p532
(dp533
g4
Nsg5
(dp534
g7
g8
sg9
g10
sg11
g12
sg13
g14
sg15
g16
sg17
g18
sg19
g20
sS'*'
g21
sg22
g23
sg24
g23
sg25
g26
sg27
g23
ssg28
S'SimpleParabolicFiniteDifferenceSolver'
p535
sg30
I00
sg31
I00
sg32
Nsg33
g392
sg35
I01
sg36
I01
sg37
I00
sg38
Nsg39
g106
sg40
Nsg41
Nsg42
I00
sg43
S'/home/grogan/Software/Chaste/projects/MicrovesselChaste/src/pde/solvers/finite_difference/SimpleParabolicFiniteDifferenceSolver.hpp'
p536
sg44
I00
sba(iwrapper_utilities.class_data
CppClass
p537
(dp538
g4
Nsg5
(dp539
g7
g8
sg9
g10
sg11
g12
sg13
g14
sg15
g16
sg17
g18
sg19
g20
sS'*'
g21
sg22
g23
sg24
g23
sg25
g26
sg27
g23
ssg28
S'FunctionMap'
p540
sg30
I00
sg31
I00
sg32
Nsg33
g392
sg35
I01
sg36
I01
sg37
I00
sg38
Nsg39
g106
sg40
Nsg41
Nsg42
I00
sg43
S'/home/grogan/Software/Chaste/projects/MicrovesselChaste/src/pde/solvers/FunctionMap.hpp'
p541
sg44
I00
sba(iwrapper_utilities.class_data
CppClass
p542
(dp543
g4
Nsg5
(dp544
g7
g8
sg9
g10
sg11
g12
sg13
g14
sg15
g16
sg17
g18
sg19
g20
sS'*'
g21
sg22
g23
sg24
g23
sg25
g26
sg27
g23
ssg28
S'DensityMap'
p545
sg30
I00
sg31
I00
sg32
Nsg33
g392
sg35
I01
sg36
I01
sg37
I00
sg38
Nsg39
g106
sg40
Nsg41
Nsg42
I00
sg43
S'/home/grogan/Software/Chaste/projects/MicrovesselChaste/src/pde/solvers/DensityMap.hpp'
p546
sg44
I00
sba(iwrapper_utilities.class_data
CppClass
p547
(dp548
g4
Nsg5
(dp549
g7
g8
sg9
g10
sg11
g12
sg13
g14
sg15
g16
sg17
g18
sg19
g20
sS'*'
g21
sg22
g23
sg24
g23
sg25
g26
sg27
g23
ssg28
S'FlowSolver'
p550
sg30
I00
sg31
I00
sg32
Nsg33
S'flow'
p551
sg35
I01
sg36
I01
sg37
I00
sg38
Nsg39
g106
sg40
Nsg41
Nsg42
I00
sg43
S'/home/grogan/Software/Chaste/projects/MicrovesselChaste/src/simulation/flow/FlowSolver.hpp'
p552
sg44
I00
sba(iwrapper_utilities.class_data
CppClass
p553
(dp554
g4
Nsg5
(dp555
g7
g8
sg9
g10
sg11
g12
sg13
g14
sg15
g16
sg17
g18
sg19
g20
sS'*'
g21
sg22
g23
sg24
g23
sg25
g26
sg27
g23
ssg28
S'WallShearStressCalculator'
p556
sg30
I00
sg31
I00
sg32
Nsg33
Nsg35
I01
sg36
I01
sg37
I00
sg38
Nsg39
Nsg40
Nsg41
Nsg42
I00
sg43
Nsg44
I00
sba(iwrapper_utilities.class_data
CppClass
p557
(dp558
g4
Nsg5
(dp559
g7
g8
sg9
g10
sg11
g12
sg13
g14
sg15
g16
sg17
g18
sg19
g20
sS'*'
g21
sg22
g23
sg24
g23
sg25
g26
sg27
g23
ssg28
S'VesselImpedanceCalculator'
p560
sg30
I00
sg31
I00
sg32
Nsg33
g551
sg35
I01
sg36
I01
sg37
I00
sg38
Nsg39
g106
sg40
Nsg41
Nsg42
I00
sg43
S'/home/grogan/Software/Chaste/projects/MicrovesselChaste/src/simulation/flow/calculators/VesselImpedanceCalculator.hpp'
p561
sg44
I00
sba(iwrapper_utilities.class_data
CppClass
p562
(dp563
g4
Nsg5
(dp564
g7
g8
sg9
g10
sg11
g12
sg13
g14
sg15
g16
sg17
g18
sg19
g20
sS'*'
g21
sg22
g23
sg24
g23
sg25
g26
sg27
g23
ssg28
S'BetteridgeHaematocritSolver'
p565
sg30
I00
sg31
I00
sg32
Nsg33
g551
sg35
I01
sg36
I01
sg37
I00
sg38
Nsg39
g106
sg40
Nsg41
Nsg42
I00
sg43
S'/home/grogan/Software/Chaste/projects/MicrovesselChaste/src/simulation/flow/calculators/haematocrit/BetteridgeHaematocritSolver.hpp'
p566
sg44
I00
sba(iwrapper_utilities.class_data
CppClass
p567
(dp568
g4
Nsg5
(dp569
g7
g8
sg9
g10
sg11
g12
sg13
g14
sg15
g16
sg17
g18
sg19
g20
sS'*'
g21
sg22
g23
sg24
g23
sg25
g26
sg27
g23
ssg28
S'AbstractVesselNetworkCalculator'
p570
sg30
I00
sg31
I00
sg32
Nsg33
g551
sg35
I01
sg36
I01
sg37
I00
sg38
Nsg39
g106
sg40
Nsg41
Nsg42
I00
sg43
S'/home/grogan/Software/Chaste/projects/MicrovesselChaste/src/simulation/flow/calculators/AbstractVesselNetworkCalculator.hpp'
p571
sg44
I00
sba(iwrapper_utilities.class_data
CppClass
p572
(dp573
g4
Nsg5
(dp574
g7
g8
sg9
g10
sg11
g12
sg13
g14
sg15
g16
sg17
g18
sg19
g20
sS'*'
g21
sg22
g23
sg24
g23
sg25
g26
sg27
g23
ssg28
S'MechanicalStimulusCalculator'
p575
sg30
I00
sg31
I00
sg32
Nsg33
g551
sg35
I01
sg36
I01
sg37
I00
sg38
Nsg39
g106
sg40
Nsg41
Nsg42
I00
sg43
S'/home/grogan/Software/Chaste/projects/MicrovesselChaste/src/simulation/flow/calculators/MechanicalStimulusCalculator.hpp'
p576
sg44
I00
sba(iwrapper_utilities.class_data
CppClass
p577
(dp578
g4
Nsg5
(dp579
g7
g8
sg9
g10
sg11
g12
sg13
g14
sg15
g16
sg17
g18
sg19
g20
sS'*'
g21
sg22
g23
sg24
g23
sg25
g26
sg27
g23
ssg28
S'MetabolicStimulusCalculator'
p580
sg30
I00
sg31
I00
sg32
Nsg33
g551
sg35
I01
sg36
I01
sg37
I00
sg38
Nsg39
g106
sg40
Nsg41
Nsg42
I00
sg43
S'/home/grogan/Software/Chaste/projects/MicrovesselChaste/src/simulation/flow/calculators/MetabolicStimulusCalculator.hpp'
p581
sg44
I00
sba(iwrapper_utilities.class_data
CppClass
p582
(dp583
g4
Nsg5
(dp584
g7
g8
sg9
g10
sg11
g12
sg13
g14
sg15
g16
sg17
g18
sg19
g20
sS'*'
g21
sg22
g23
sg24
g23
sg25
g26
sg27
g23
ssg28
S'RadiusCalculator'
p585
sg30
I00
sg31
I00
sg32
Nsg33
g551
sg35
I01
sg36
I01
sg37
I00
sg38
Nsg39
g106
sg40
Nsg41
Nsg42
I00
sg43
S'/home/grogan/Software/Chaste/projects/MicrovesselChaste/src/simulation/flow/calculators/RadiusCalculator.hpp'
p586
sg44
I00
sba(iwrapper_utilities.class_data
CppClass
p587
(dp588
g4
Nsg5
(dp589
g7
g8
sg9
g10
sg11
g12
sg13
g14
sg15
g16
sg17
g18
sg19
g20
sS'*'
g21
sg22
g23
sg24
g23
sg25
g26
sg27
g23
ssg28
S'ShrinkingStimulusCalculator'
p590
sg30
I00
sg31
I00
sg32
Nsg33
g551
sg35
I01
sg36
I01
sg37
I00
sg38
Nsg39
g106
sg40
Nsg41
Nsg42
I00
sg43
S'/home/grogan/Software/Chaste/projects/MicrovesselChaste/src/simulation/flow/calculators/ShrinkingStimulusCalculator.hpp'
p591
sg44
I00
sba(iwrapper_utilities.class_data
CppClass
p592
(dp593
g4
Nsg5
(dp594
g7
g8
sg9
g10
sg11
g12
sg13
g14
sg15
g16
sg17
g18
sg19
g20
sS'*'
g21
sg22
g23
sg24
g23
sg25
g26
sg27
g23
ssg28
S'ViscosityCalculator'
p595
sg30
I00
sg31
I00
sg32
Nsg33
g551
sg35
I01
sg36
I01
sg37
I00
sg38
Nsg39
g106
sg40
Nsg41
Nsg42
I00
sg43
S'/home/grogan/Software/Chaste/projects/MicrovesselChaste/src/simulation/flow/calculators/ViscosityCalculator.hpp'
p596
sg44
I00
sba(iwrapper_utilities.class_data
CppClass
p597
(dp598
g4
Nsg5
(dp599
g7
g8
sg9
g10
sg11
g12
sg13
g14
sg15
g16
sg17
g18
sg19
g20
sS'*'
g21
sg22
g23
sg24
g23
sg25
g26
sg27
g23
ssg28
g556
sg30
I00
sg31
I00
sg32
Nsg33
g551
sg35
I01
sg36
I01
sg37
I00
sg38
Nsg39
g106
sg40
Nsg41
Nsg42
I00
sg43
S'/home/grogan/Software/Chaste/projects/MicrovesselChaste/src/simulation/flow/calculators/WallShearStressCalculator.hpp'
p600
sg44
I00
sba(iwrapper_utilities.class_data
CppClass
p601
(dp602
g4
Nsg5
(dp603
g7
g8
sg9
g10
sg11
g12
sg13
g14
sg15
g16
sg17
g18
sg19
g20
sS'*'
g21
sg22
g23
sg24
g23
sg25
g26
sg27
g23
ssg28
S'AbstractStructuralAdaptationSolver'
p604
sg30
I00
sg31
I00
sg32
Nsg33
g551
sg35
I01
sg36
I01
sg37
I00
sg38
Nsg39
g106
sg40
Nsg41
Nsg42
I00
sg43
S'/home/grogan/Software/Chaste/projects/MicrovesselChaste/src/simulation/flow/structural_adaptation/AbstractStructuralAdaptationSolver.hpp'
p605
sg44
I00
sba(iwrapper_utilities.class_data
CppClass
p606
(dp607
g4
Nsg5
(dp608
g7
g8
sg9
g10
sg11
g12
sg13
g14
sg15
g16
sg17
g18
sg19
g20
sS'*'
g21
sg22
g23
sg24
g23
sg25
g26
sg27
g23
ssg28
S'StructuralAdaptationSolver'
p609
sg30
I00
sg31
I00
sg32
Nsg33
g551
sg35
I01
sg36
I01
sg37
I00
sg38
Nsg39
g106
sg40
Nsg41
Nsg42
I00
sg43
S'/home/grogan/Software/Chaste/projects/MicrovesselChaste/src/simulation/flow/structural_adaptation/StructuralAdaptationSolver.hpp'
p610
sg44
I00
sba(iwrapper_utilities.class_data
CppClass
p611
(dp612
g4
Nsg5
(dp613
g7
g8
sg9
g10
sg11
g12
sg13
g14
sg15
g16
sg17
g18
sg19
g20
sS'*'
g21
sg22
g23
sg24
g23
sg25
g26
sg27
g23
ssg28
S'AbstractHaematocritSolver'
p614
sg30
I00
sg31
I00
sg32
Nsg33
g551
sg35
I01
sg36
I01
sg37
I00
sg38
Nsg39
g106
sg40
Nsg41
Nsg42
I00
sg43
S'/home/grogan/Software/Chaste/projects/MicrovesselChaste/src/simulation/flow/calculators/haematocrit/AbstractHaematocritSolver.hpp'
p615
sg44
I00
sba(iwrapper_utilities.class_data
CppClass
p616
(dp617
g4
Nsg5
(dp618
g7
g8
sg9
g10
sg11
g12
sg13
g14
sg15
g16
sg17
g18
sg19
g20
sS'*'
g21
sg22
g23
sg24
g23
sg25
g26
sg27
g23
ssg28
S'AlarconHaematocritSolver'
p619
sg30
I00
sg31
I00
sg32
Nsg33
g551
sg35
I01
sg36
I01
sg37
I00
sg38
Nsg39
g106
sg40
Nsg41
Nsg42
I00
sg43
S'/home/grogan/Software/Chaste/projects/MicrovesselChaste/src/simulation/flow/calculators/haematocrit/AlarconHaematocritSolver.hpp'
p620
sg44
I00
sba(iwrapper_utilities.class_data
CppClass
p621
(dp622
g4
Nsg5
(dp623
g7
g8
sg9
g10
sg11
g12
sg13
g14
sg15
g16
sg17
g18
sg19
g20
sS'*'
g21
sg22
g23
sg24
g23
sg25
g26
sg27
g23
ssg28
S'ConstantHaematocritSolver'
p624
sg30
I00
sg31
I00
sg32
Nsg33
g551
sg35
I01
sg36
I01
sg37
I00
sg38
Nsg39
g106
sg40
Nsg41
Nsg42
I00
sg43
S'/home/grogan/Software/Chaste/projects/MicrovesselChaste/src/simulation/flow/calculators/haematocrit/ConstantHaematocritSolver.hpp'
p625
sg44
I00
sba(iwrapper_utilities.class_data
CppClass
p626
(dp627
g4
Nsg5
(dp628
g7
g8
sg9
g10
sg11
g12
sg13
g14
sg15
g16
sg17
g18
sg19
g20
sS'*'
g21
sg22
g23
sg24
g23
sg25
g26
sg27
g23
ssg28
S'MicrovesselSolver'
p629
sg30
I00
sg31
I00
sg32
Nsg33
S'simulation'
p630
sg35
I01
sg36
I01
sg37
I00
sg38
Nsg39
g106
sg40
Nsg41
Nsg42
I00
sg43
S'/home/grogan/Software/Chaste/projects/MicrovesselChaste/src/simulation/MicrovesselSolver.hpp'
p631
sg44
I00
sba(iwrapper_utilities.class_data
CppClass
p632
(dp633
g4
Nsg5
(dp634
g7
g8
sg9
g10
sg11
g12
sg13
g14
sg15
g16
sg17
g18
sg19
g20
sS'*'
g21
sg22
g23
sg24
g23
sg25
g26
sg27
g23
ssg28
S'MicrovesselSimulationModifier'
p635
sg30
I00
sg31
I00
sg32
Nsg33
g630
sg35
I01
sg36
I01
sg37
I00
sg38
Nsg39
g106
sg40
Nsg41
Nsg42
I00
sg43
S'/home/grogan/Software/Chaste/projects/MicrovesselChaste/src/simulation/modifiers/MicrovesselSimulationModifier.hpp'
p636
sg44
I00
sba(iwrapper_utilities.class_data
CppClass
p637
(dp638
g4
Nsg5
(dp639
g7
g8
sg9
g10
sg11
g12
sg13
g14
sg15
g16
sg17
g18
sg19
g20
sS'*'
g21
sg22
g23
sg24
g23
sg25
g26
sg27
g23
ssg28
S'AbstractMicrovesselModifier'
p640
sg30
I00
sg31
I00
sg32
Nsg33
Nsg35
I01
sg36
I01
sg37
I00
sg38
Nsg39
Nsg40
Nsg41
Nsg42
I00
sg43
Nsg44
I00
sba(iwrapper_utilities.class_data
CppClass
p641
(dp642
g4
Nsg5
(dp643
g7
g8
sg9
g10
sg11
g12
sg13
g14
sg15
g16
sg17
g18
sg19
g20
sS'*'
g21
sg22
g23
sg24
g23
sg25
g26
sg27
g23
ssg28
S'VtkSceneMicrovesselModifier'
p644
sg30
I00
sg31
I00
sg32
Nsg33
Nsg35
I01
sg36
I01
sg37
I00
sg38
Nsg39
Nsg40
Nsg41
Nsg42
I00
sg43
Nsg44
I00
sba(iwrapper_utilities.class_data
CppClass
p645
(dp646
g4
Nsg5
(dp647
g7
g8
sg9
g10
sg11
g12
sg13
g14
sg15
g16
sg17
g18
sg19
g20
sS'*'
g21
sg22
g23
sg24
g23
sg25
g26
sg27
g23
ssg28
S'Owen2011TrackingModifier'
p648
sg30
I00
sg31
I00
sg32
Nsg33
Nsg35
I01
sg36
I01
sg37
I00
sg38
Nsg39
g106
sg40
Nsg41
Nsg42
I00
sg43
S'/home/grogan/Software/Chaste/projects/MicrovesselChaste/src/ode/Owen2011TrackingModifier.hpp'
p649
sg44
I00
sba(iwrapper_utilities.class_data
CppClass
p650
(dp651
g4
Nsg5
(dp652
g7
g8
sg9
g10
sg11
g12
sg13
g14
sg15
g16
sg17
g18
sg19
g20
sS'*'
g21
sg22
g23
sg24
g23
sg25
g26
sg27
g23
ssg28
S'AbstractCellBasedSimulationModifier'
p653
sg30
I00
sg31
I00
sg32
Nsg33
g630
sg35
I01
sg36
I01
sg37
I00
sg38
Nsg39
g159
sg40
Nsg41
Nsg42
I00
sg43
S'/home/grogan/Software/Chaste/cell_based/src/simulation/modifiers/AbstractCellBasedSimulationModifier.hpp'
p654
sg44
I00
sba(iwrapper_utilities.class_data
CppClass
p655
(dp656
g4
Nsg5
(dp657
g7
g8
sg9
g10
sg11
g12
sg13
g14
sg15
g16
sg17
g18
sg19
g20
sS'*'
g21
sg22
g23
sg24
g23
sg25
g26
sg27
g23
ssg28
S'VesselNetworkReader'
p658
sg30
I00
sg31
I00
sg32
Nsg33
S'vessel'
p659
sg35
I01
sg36
I01
sg37
I00
sg38
Nsg39
g106
sg40
Nsg41
Nsg42
I00
sg43
S'/home/grogan/Software/Chaste/projects/MicrovesselChaste/src/population/vessel/readers/VesselNetworkReader.hpp'
p660
sg44
I00
sba(iwrapper_utilities.class_data
CppClass
p661
(dp662
g4
Nsg5
(dp663
g7
g8
sg9
g10
sg11
g12
sg13
g14
sg15
g16
sg17
g18
sg19
g20
sS'*'
g21
sg22
g23
sg24
g23
sg25
g26
sg27
g23
ssg28
S'NodeFlowProperties'
p664
sg30
I00
sg31
I00
sg32
Nsg33
g659
sg35
I01
sg36
I01
sg37
I00
sg38
Nsg39
g106
sg40
Nsg41
Nsg42
I00
sg43
S'/home/grogan/Software/Chaste/projects/MicrovesselChaste/src/population/vessel/properties/NodeFlowProperties.hpp'
p665
sg44
I00
sba(iwrapper_utilities.class_data
CppClass
p666
(dp667
g4
Nsg5
(dp668
g7
g8
sg9
g10
sg11
g12
sg13
g14
sg15
g16
sg17
g18
sg19
g20
sS'*'
g21
sg22
g23
sg24
g23
sg25
g26
sg27
g23
ssg28
S'SegmentFlowProperties'
p669
sg30
I00
sg31
I00
sg32
Nsg33
g659
sg35
I01
sg36
I01
sg37
I00
sg38
Nsg39
g106
sg40
Nsg41
Nsg42
I00
sg43
S'/home/grogan/Software/Chaste/projects/MicrovesselChaste/src/population/vessel/properties/SegmentFlowProperties.hpp'
p670
sg44
I00
sba(iwrapper_utilities.class_data
CppClass
p671
(dp672
g4
Nsg5
(dp673
g7
g8
sg9
g10
sg11
g12
sg13
g14
sg15
g16
sg17
g18
sg19
g20
sS'*'
g21
sg22
g23
sg24
g23
sg25
g26
sg27
g23
ssg28
S'VesselFlowProperties'
p674
sg30
I00
sg31
I00
sg32
Nsg33
g659
sg35
I01
sg36
I01
sg37
I00
sg38
Nsg39
g106
sg40
Nsg41
Nsg42
I00
sg43
S'/home/grogan/Software/Chaste/projects/MicrovesselChaste/src/population/vessel/properties/VesselFlowProperties.hpp'
p675
sg44
I00
sba(iwrapper_utilities.class_data
CppClass
p676
(dp677
g4
Nsg5
(dp678
g7
g8
sg9
g10
sg11
g12
sg13
g14
sg15
g16
sg17
g18
sg19
g20
sS'*'
g21
sg22
g23
sg24
g23
sg25
g26
sg27
g23
ssg28
S'VesselNode'
p679
sg30
I00
sg31
I00
sg32
Nsg33
g659
sg35
I01
sg36
I01
sg37
I00
sg38
Nsg39
g106
sg40
Nsg41
Nsg42
I01
sg43
S'/home/grogan/Software/Chaste/projects/MicrovesselChaste/src/population/vessel/VesselNode.hpp'
p680
sg44
I00
sba(iwrapper_utilities.class_data
CppClass
p681
(dp682
g4
Nsg5
(dp683
g7
g8
sg9
g10
sg11
g12
sg13
g14
sg15
g16
sg17
g18
sg19
g20
sS'*'
g21
sg22
g23
sg24
g23
sg25
g26
sg27
g23
ssg28
S'VesselSegment'
p684
sg30
I00
sg31
I00
sg32
Nsg33
g659
sg35
I01
sg36
I01
sg37
I00
sg38
Nsg39
g106
sg40
Nsg41
Nsg42
I01
sg43
S'/home/grogan/Software/Chaste/projects/MicrovesselChaste/src/population/vessel/VesselSegment.hpp'
p685
sg44
I00
sba(iwrapper_utilities.class_data
CppClass
p686
(dp687
g4
Nsg5
(dp688
g7
g8
sg9
g10
sg11
g12
sg13
g14
sg15
g16
sg17
g18
sg19
g20
sS'*'
g21
sg22
g23
sg24
g23
sg25
g26
sg27
g23
ssg28
S'Vessel'
p689
sg30
I00
sg31
I00
sg32
Nsg33
g659
sg35
I01
sg36
I01
sg37
I00
sg38
Nsg39
g106
sg40
Nsg41
Nsg42
I01
sg43
S'/home/grogan/Software/Chaste/projects/MicrovesselChaste/src/population/vessel/Vessel.hpp'
p690
sg44
I00
sba(iwrapper_utilities.class_data
CppClass
p691
(dp692
g4
Nsg5
(dp693
g7
g8
sg9
g10
sg11
g12
sg13
g14
sg15
g16
sg17
g18
sg19
g20
sS'*'
g21
sg22
g23
sg24
g23
sg25
g26
sg27
g23
ssg28
S'VesselNetwork'
p694
sg30
I00
sg31
I00
sg32
Nsg33
g659
sg35
I01
sg36
I01
sg37
I00
sg38
Nsg39
g106
sg40
Nsg41
Nsg42
I00
sg43
S'/home/grogan/Software/Chaste/projects/MicrovesselChaste/src/population/vessel/VesselNetwork.hpp'
p695
sg44
I00
sba(iwrapper_utilities.class_data
CppClass
p696
(dp697
g4
Nsg5
(dp698
g7
g8
sg9
g10
sg11
g12
sg13
g14
sg15
g16
sg17
g18
sg19
g20
sS'*'
g21
sg22
g23
sg24
g23
sg25
g26
sg27
g23
ssg28
S'VesselNetworkGenerator'
p699
sg30
I00
sg31
I00
sg32
Nsg33
g659
sg35
I01
sg36
I01
sg37
I00
sg38
Nsg39
g106
sg40
Nsg41
Nsg42
I00
sg43
S'/home/grogan/Software/Chaste/projects/MicrovesselChaste/src/population/vessel/generators/VesselNetworkGenerator.hpp'
p700
sg44
I00
sba(iwrapper_utilities.class_data
CppClass
p701
(dp702
g4
Nsg5
(dp703
g7
g8
sg9
g10
sg11
g12
sg13
g14
sg15
g16
sg17
g18
sg19
g20
sS'*'
g21
sg22
g23
sg24
g23
sg25
g26
sg27
g23
ssg28
S'AbstractVesselNetworkComponent'
p704
sg30
I00
sg31
I00
sg32
Nsg33
g659
sg35
I01
sg36
I01
sg37
I00
sg38
Nsg39
g106
sg40
Nsg41
Nsg42
I00
sg43
S'/home/grogan/Software/Chaste/projects/MicrovesselChaste/src/population/vessel/AbstractVesselNetworkComponent.hpp'
p705
sg44
I00
sba(iwrapper_utilities.class_data
CppClass
p706
(dp707
g4
Nsg5
(dp708
g7
g8
sg9
g10
sg11
g12
sg13
g14
sg15
g16
sg17
g18
sg19
g20
sS'*'
g21
sg22
g23
sg24
g23
sg25
g26
sg27
g23
ssg28
S'VesselNetworkCellPopulationInteractor'
p709
sg30
I00
sg31
I00
sg32
Nsg33
Nsg35
I01
sg36
I01
sg37
I00
sg38
Nsg39
g106
sg40
Nsg41
Nsg42
I00
sg43
S'/home/grogan/Software/Chaste/projects/MicrovesselChaste/src/population/VesselNetworkCellPopulationInteractor.hpp'
p710
sg44
I00
sba(iwrapper_utilities.class_data
CppClass
p711
(dp712
g4
Nsg5
(dp713
g7
g8
sg9
g10
sg11
g12
sg13
g14
sg15
g16
sg17
g18
sg19
g20
sS'*'
g21
sg22
g23
sg24
g23
sg25
g26
sg27
g23
ssg28
S'VesselNetworkWriter'
p714
sg30
I00
sg31
I00
sg32
Nsg33
g659
sg35
I01
sg36
I01
sg37
I00
sg38
Nsg39
g106
sg40
Nsg41
Nsg42
I00
sg43
S'/home/grogan/Software/Chaste/projects/MicrovesselChaste/src/population/vessel/writers/VesselNetworkWriter.hpp'
p715
sg44
I00
sba(iwrapper_utilities.class_data
CppClass
p716
(dp717
g4
Nsg5
(dp718
g7
g8
sg9
g10
sg11
g12
sg13
g14
sg15
g16
sg17
g18
sg19
g20
sS'*'
g21
sg22
g23
sg24
g23
sg25
g26
sg27
g23
ssg28
S'DistanceMap'
p719
sg30
I00
sg31
I00
sg32
Nsg33
g659
sg35
I01
sg36
I01
sg37
I00
sg38
Nsg39
g106
sg40
Nsg41
Nsg42
I00
sg43
S'/home/grogan/Software/Chaste/projects/MicrovesselChaste/src/population/vessel/calculators/DistanceMap.hpp'
p720
sg44
I00
sba(iwrapper_utilities.class_data
CppClass
p721
(dp722
g4
Nsg5
(dp723
g7
g8
sg9
g10
sg11
g12
sg13
g14
sg15
g16
sg17
g18
sg19
g20
sS'*'
g21
sg22
g23
sg24
g23
sg25
g26
sg27
g23
ssg28
S'VesselNetworkGeometryCalculator'
p724
sg30
I00
sg31
I00
sg32
Nsg33
g659
sg35
I01
sg36
I01
sg37
I00
sg38
Nsg39
g106
sg40
Nsg41
Nsg42
I00
sg43
S'/home/grogan/Software/Chaste/projects/MicrovesselChaste/src/population/vessel/calculators/VesselNetworkGeometryCalculator.hpp'
p725
sg44
I00
sba(iwrapper_utilities.class_data
CppClass
p726
(dp727
g4
Nsg5
(dp728
g7
g8
sg9
g10
sg11
g12
sg13
g14
sg15
g16
sg17
g18
sg19
g20
sS'*'
g21
sg22
g23
sg24
g23
sg25
g26
sg27
g23
ssg28
S'VesselNetworkGraphCalculator'
p729
sg30
I00
sg31
I00
sg32
Nsg33
g659
sg35
I01
sg36
I01
sg37
I00
sg38
Nsg39
g106
sg40
Nsg41
Nsg42
I00
sg43
S'/home/grogan/Software/Chaste/projects/MicrovesselChaste/src/population/vessel/calculators/VesselNetworkGraphCalculator.hpp'
p730
sg44
I00
sba(iwrapper_utilities.class_data
CppClass
p731
(dp732
g4
Nsg5
(dp733
g7
g8
sg9
g10
sg11
g12
sg13
g14
sg15
g16
sg17
g18
sg19
g20
sS'*'
g21
sg22
g23
sg24
g23
sg25
g26
sg27
g23
ssg28
S'AbstractVesselNetworkComponentProperties'
p734
sg30
I00
sg31
I00
sg32
Nsg33
g659
sg35
I01
sg36
I01
sg37
I00
sg38
Nsg39
g106
sg40
Nsg41
Nsg42
I00
sg43
S'/home/grogan/Software/Chaste/projects/MicrovesselChaste/src/population/vessel/properties/AbstractVesselNetworkComponentProperties.hpp'
p735
sg44
I00
sba(iwrapper_utilities.class_data
CppClass
p736
(dp737
g4
Nsg5
(dp738
g7
g8
sg9
g10
sg11
g12
sg13
g14
sg15
g16
sg17
g18
sg19
g20
sS'*'
g21
sg22
g23
sg24
g23
sg25
g26
sg27
g23
ssg28
S'AbstractVesselNetworkComponentFlowProperties'
p739
sg30
I00
sg31
I00
sg32
Nsg33
g659
sg35
I01
sg36
I01
sg37
I00
sg38
Nsg39
g106
sg40
Nsg41
Nsg42
I00
sg43
S'/home/grogan/Software/Chaste/projects/MicrovesselChaste/src/population/vessel/properties/AbstractVesselNetworkComponentFlowProperties.hpp'
p740
sg44
I00
sba(iwrapper_utilities.class_data
CppClass
p741
(dp742
g4
Nsg5
(dp743
g7
g8
sg9
g10
sg11
g12
sg13
g14
sg15
g16
sg17
g18
sg19
g20
sS'*'
g21
sg22
g23
sg24
g23
sg25
g26
sg27
g23
ssg28
S'AbstractVesselNetworkComponentChemicalProperties'
p744
sg30
I00
sg31
I00
sg32
Nsg33
g659
sg35
I01
sg36
I01
sg37
I00
sg38
Nsg39
g106
sg40
Nsg41
Nsg42
I00
sg43
S'/home/grogan/Software/Chaste/projects/MicrovesselChaste/src/population/vessel/properties/AbstractVesselNetworkComponentChemicalProperties.hpp'
p745
sg44
I00
sba(iwrapper_utilities.class_data
CppClass
p746
(dp747
g4
Nsg5
(dp748
g7
g8
sg9
g10
sg11
g12
sg13
g14
sg15
g16
sg17
g18
sg19
g20
sS'*'
g21
sg22
g23
sg24
g23
sg25
g26
sg27
g23
ssg28
S'MicrovesselVtkScene'
p749
sg30
I00
sg31
I00
sg32
Nsg33
S'visualization'
p750
sg35
I01
sg36
I01
sg37
I00
sg38
Nsg39
g106
sg40
Nsg41
Nsg42
I00
sg43
S'/home/grogan/Software/Chaste/projects/MicrovesselChaste/src/utility/visualization/MicrovesselVtkScene.hpp'
p751
sg44
I00
sba(iwrapper_utilities.class_data
CppClass
p752
(dp753
g4
Nsg5
(dp754
g7
g8
sg9
g10
sg11
g12
sg13
g14
sg15
g16
sg17
g18
sg19
g20
sS'*'
g21
sg22
g23
sg24
g23
sg25
g26
sg27
g23
ssg28
S'CellPopulationActorGenerator'
p755
sg30
I00
sg31
I00
sg32
Nsg33
g750
sg35
I01
sg36
I01
sg37
I00
sg38
Nsg39
g106
sg40
Nsg41
Nsg42
I00
sg43
S'/home/grogan/Software/Chaste/projects/MicrovesselChaste/src/utility/visualization/CellPopulationActorGenerator.hpp'
p756
sg44
I00
sba(iwrapper_utilities.class_data
CppClass
p757
(dp758
g4
Nsg5
(dp759
g7
g8
sg9
g10
sg11
g12
sg13
g14
sg15
g16
sg17
g18
sg19
g20
sS'*'
g21
sg22
g23
sg24
g23
sg25
g26
sg27
g23
ssg28
S'DiscreteContinuumMeshActorGenerator'
p760
sg30
I00
sg31
I00
sg32
Nsg33
g750
sg35
I01
sg36
I01
sg37
I00
sg38
Nsg39
g106
sg40
Nsg41
Nsg42
I00
sg43
S'/home/grogan/Software/Chaste/projects/MicrovesselChaste/src/utility/visualization/DiscreteContinuumMeshActorGenerator.hpp'
p761
sg44
I00
sba(iwrapper_utilities.class_data
CppClass
p762
(dp763
g4
Nsg5
(dp764
g7
g8
sg9
g10
sg11
g12
sg13
g14
sg15
g16
sg17
g18
sg19
g20
sS'*'
g21
sg22
g23
sg24
g23
sg25
g26
sg27
g23
ssg28
S'PartActorGenerator'
p765
sg30
I00
sg31
I00
sg32
Nsg33
g750
sg35
I01
sg36
I01
sg37
I00
sg38
Nsg39
g106
sg40
Nsg41
Nsg42
I00
sg43
S'/home/grogan/Software/Chaste/projects/MicrovesselChaste/src/utility/visualization/PartActorGenerator.hpp'
p766
sg44
I00
sba(iwrapper_utilities.class_data
CppClass
p767
(dp768
g4
Nsg5
(dp769
g7
g8
sg9
g10
sg11
g12
sg13
g14
sg15
g16
sg17
g18
sg19
g20
sS'*'
g21
sg22
g23
sg24
g23
sg25
g26
sg27
g23
ssg28
S'RegularGridActorGenerator'
p770
sg30
I00
sg31
I00
sg32
Nsg33
g750
sg35
I01
sg36
I01
sg37
I00
sg38
Nsg39
g106
sg40
Nsg41
Nsg42
I00
sg43
S'/home/grogan/Software/Chaste/projects/MicrovesselChaste/src/utility/visualization/RegularGridActorGenerator.hpp'
p771
sg44
I00
sba(iwrapper_utilities.class_data
CppClass
p772
(dp773
g4
Nsg5
(dp774
g7
g8
sg9
g10
sg11
g12
sg13
g14
sg15
g16
sg17
g18
sg19
g20
sS'*'
g21
sg22
g23
sg24
g23
sg25
g26
sg27
g23
ssg28
S'VesselNetworkActorGenerator'
p775
sg30
I00
sg31
I00
sg32
Nsg33
g750
sg35
I01
sg36
I01
sg37
I00
sg38
Nsg39
g106
sg40
Nsg41
Nsg42
I00
sg43
S'/home/grogan/Software/Chaste/projects/MicrovesselChaste/src/utility/visualization/VesselNetworkActorGenerator.hpp'
p776
sg44
I00
sba(iwrapper_utilities.class_data
CppClass
p777
(dp778
g4
Nsg5
(dp779
g7
g8
sg9
g10
sg11
g12
sg13
g14
sg15
g16
sg17
g18
sg19
g20
sS'*'
g21
sg22
g23
sg24
g23
sg25
g26
sg27
g23
ssg28
S'AbstractActorGenerator'
p780
sg30
I00
sg31
I00
sg32
Nsg33
g750
sg35
I01
sg36
I01
sg37
I00
sg38
Nsg39
g106
sg40
Nsg41
Nsg42
I00
sg43
S'/home/grogan/Software/Chaste/projects/MicrovesselChaste/src/utility/visualization/AbstractActorGenerator.hpp'
p781
sg44
I00
sba(iwrapper_utilities.class_data
CppClass
p782
(dp783
g4
Nsg5
(dp784
g7
g8
sg9
g10
sg11
g12
sg13
g14
sg15
g16
sg17
g18
sg19
g20
sS'*'
g21
sg22
g23
sg24
g23
sg25
g26
sg27
g23
ssg28
g640
sg30
I00
sg31
I00
sg32
Nsg33
g630
sg35
I01
sg36
I01
sg37
I00
sg38
Nsg39
g106
sg40
Nsg41
Nsg42
I00
sg43
S'/home/grogan/Software/Chaste/projects/MicrovesselChaste/src/simulation/modifiers/AbstractMicrovesselModifier.hpp'
p785
sg44
I00
sba(iwrapper_utilities.class_data
CppClass
p786
(dp787
g4
Nsg5
(dp788
g7
g8
sg9
g10
sg11
g12
sg13
g14
sg15
g16
sg17
g18
sg19
g20
sS'*'
g21
sg22
g23
sg24
g23
sg25
g26
sg27
g23
ssg28
g644
sg30
I00
sg31
I00
sg32
Nsg33
g630
sg35
I01
sg36
I01
sg37
I00
sg38
Nsg39
g106
sg40
Nsg41
Nsg42
I00
sg43
S'/home/grogan/Software/Chaste/projects/MicrovesselChaste/src/simulation/modifiers/VtkSceneMicrovesselModifier.hpp'
p789
sg44
I00
sba(iwrapper_utilities.class_data
CppClass
p790
(dp791
g4
Nsg5
(dp792
g7
g8
sg9
g10
sg11
g12
sg13
g14
sg15
g16
sg17
g18
sg19
g20
sS'*'
g21
sg22
g23
sg24
g23
sg25
g26
sg27
g23
ssg28
S'ParameterInstance'
p793
sg30
I00
sg31
I00
sg32
Nsg33
S'utility'
p794
sg35
I01
sg36
I00
sg37
I01
sg38
Nsg39
Nsg40
Nsg41
Nsg42
I00
sg43
S'/home/grogan/Software/Chaste/projects/MicrovesselChaste/src/utility/ParameterInstance.hpp'
p795
sg44
I00
sba(iwrapper_utilities.class_data
CppClass
p796
(dp797
g4
Nsg5
(dp798
g7
g8
sg9
g10
sg11
g12
sg13
g14
sg15
g16
sg17
g18
sg19
g20
sS'*'
g21
sg22
g23
sg24
g23
sg25
g26
sg27
g23
ssg28
S'BaseUnits'
p799
sg30
I00
sg31
I00
sg32
Nsg33
g794
sg35
I01
sg36
I01
sg37
I00
sg38
Nsg39
Nsg40
Nsg41
Nsg42
I00
sg43
S'/home/grogan/Software/Chaste/projects/MicrovesselChaste/src/utility/BaseUnits.hpp'
p800
sg44
I00
sba(iwrapper_utilities.class_data
CppClass
p801
(dp802
g4
Nsg5
(dp803
g7
g8
sg9
g10
sg11
g12
sg13
g14
sg15
g16
sg17
g18
sg19
g20
sS'*'
g21
sg22
g23
sg24
g23
sg25
g26
sg27
g23
ssg28
S'UnitCollection'
p804
sg30
I00
sg31
I00
sg32
Nsg33
g794
sg35
I01
sg36
I00
sg37
I01
sg38
Nsg39
Nsg40
Nsg41
Nsg42
I00
sg43
S'/home/grogan/Software/Chaste/projects/MicrovesselChaste/src/utility/UnitCollection.hpp'
p805
sg44
I00
sba(iwrapper_utilities.class_data
CppClass
p806
(dp807
g4
Nsg5
(dp808
g7
g8
sg9
g10
sg11
g12
sg13
g14
sg15
g16
sg17
g18
sg19
g20
sS'*'
g21
sg22
g23
sg24
g23
sg25
g26
sg27
g23
ssg28
S'ParameterCollection'
p809
sg30
I00
sg31
I00
sg32
Nsg33
g794
sg35
I01
sg36
I01
sg37
I00
sg38
Nsg39
Nsg40
Nsg41
Nsg42
I00
sg43
S'/home/grogan/Software/Chaste/projects/MicrovesselChaste/src/utility/ParameterCollection.hpp'
p810
sg44
I00
sba(iwrapper_utilities.class_data
CppClass
p811
(dp812
g4
Nsg5
(dp813
g7
g8
sg9
g10
sg11
g12
sg13
g14
sg15
g16
sg17
g18
sg19
g20
sS'*'
g21
sg22
g23
sg24
g23
sg25
g26
sg27
g23
ssg28
S'BaseParameterInstance'
p814
sg30
I00
sg31
I00
sg32
Nsg33
g794
sg35
I01
sg36
I01
sg37
I00
sg38
Nsg39
Nsg40
Nsg41
Nsg42
I00
sg43
S'/home/grogan/Software/Chaste/projects/MicrovesselChaste/src/utility/BaseParameterInstance.hpp'
p815
sg44
I00
sba(iwrapper_utilities.class_data
CppClass
p816
(dp817
g4
Nsg5
(dp818
g7
g8
sg9
g10
sg11
g12
sg13
g14
sg15
g16
sg17
g18
sg19
g20
sS'*'
g21
sg22
g23
sg24
g23
sg25
g26
sg27
g23
ssg28
S'Owen11Parameters'
p819
sg30
I00
sg31
I00
sg32
Nsg33
g794
sg35
I01
sg36
I01
sg37
I00
sg38
Nsg39
Nsg40
Nsg41
Nsg42
I00
sg43
S'/home/grogan/Software/Chaste/projects/MicrovesselChaste/src/utility/literature_parameters/Owen11Parameters.hpp'
p820
sg44
I00
sba(iwrapper_utilities.class_data
CppClass
p821
(dp822
g4
Nsg5
(dp823
g7
g8
sg9
g10
sg11
g12
sg13
g14
sg15
g16
sg17
g18
sg19
g20
sS'*'
g21
sg22
g23
sg24
g23
sg25
g26
sg27
g23
ssg28
S'Connor17Parameters'
p824
sg30
I00
sg31
I00
sg32
Nsg33
g794
sg35
I01
sg36
I01
sg37
I00
sg38
Nsg39
Nsg40
Nsg41
Nsg42
I00
sg43
S'/home/grogan/Software/Chaste/projects/MicrovesselChaste/src/utility/literature_parameters/Connor17Parameters.hpp'
p825
sg44
I00
sba(iwrapper_utilities.class_data
CppClass
p826
(dp827
g4
Nsg5
(dp828
g7
g8
sg9
g10
sg11
g12
sg13
g14
sg15
g16
sg17
g18
sg19
g20
sS'*'
g21
sg22
g23
sg24
g23
sg25
g26
sg27
g23
ssg28
S'Secomb04Parameters'
p829
sg30
I00
sg31
I00
sg32
Nsg33
g794
sg35
I01
sg36
I01
sg37
I00
sg38
Nsg39
Nsg40
Nsg41
Nsg42
I00
sg43
S'/home/grogan/Software/Chaste/projects/MicrovesselChaste/src/utility/literature_parameters/Secomb04Parameters.hpp'
p830
sg44
I00
sba(iwrapper_utilities.class_data
CppClass
p831
(dp832
g4
Nsg5
(dp833
g7
g8
sg9
g10
sg11
g12
sg13
g14
sg15
g16
sg17
g18
sg19
g20
sS'*'
g21
sg22
g23
sg24
g23
sg25
g26
sg27
g23
ssg28
S'GenericParameters'
p834
sg30
I00
sg31
I00
sg32
Nsg33
g794
sg35
I01
sg36
I01
sg37
I00
sg38
Nsg39
Nsg40
Nsg41
Nsg42
I00
sg43
S'/home/grogan/Software/Chaste/projects/MicrovesselChaste/src/utility/literature_parameters/GenericParameters.hpp'
p835
sg44
I00
sba(iwrapper_utilities.class_data
CppClass
p836
(dp837
g4
Nsg5
(dp838
g7
g8
sg9
g10
sg11
g12
sg13
g14
sg15
g16
sg17
g18
sg19
g20
sS'*'
g21
sg22
g23
sg24
g23
sg25
g26
sg27
g23
ssg28
S'ImageReader'
p839
sg30
I00
sg31
I00
sg32
Nsg33
S'image'
p840
sg35
I01
sg36
I01
sg37
I00
sg38
Nsg39
Nsg40
Nsg41
Nsg42
I00
sg43
S'/home/grogan/Software/Chaste/projects/MicrovesselChaste/src/image/ImageReader.hpp'
p841
sg44
I00
sba(iwrapper_utilities.class_data
CppClass
p842
(dp843
g4
Nsg5
(dp844
g7
g8
sg9
g10
sg11
g12
sg13
g14
sg15
g16
sg17
g18
sg19
g20
sS'*'
g21
sg22
g23
sg24
g23
sg25
g26
sg27
g23
ssg28
S'ImageToMesh'
p845
sg30
I00
sg31
I00
sg32
Nsg33
g840
sg35
I01
sg36
I01
sg37
I00
sg38
Nsg39
g106
sg40
Nsg41
Nsg42
I00
sg43
S'/home/grogan/Software/Chaste/projects/MicrovesselChaste/src/image/ImageToMesh.hpp'
p846
sg44
I00
sba(iwrapper_utilities.class_data
CppClass
p847
(dp848
g4
Nsg5
(dp849
g7
g8
sg9
g10
sg11
g12
sg13
g14
sg15
g16
sg17
g18
sg19
g20
sS'*'
g21
sg22
g23
sg24
g23
sg25
g26
sg27
g23
ssg28
S'ImageToSurface'
p850
sg30
I00
sg31
I00
sg32
Nsg33
g840
sg35
I01
sg36
I01
sg37
I00
sg38
Nsg39
Nsg40
Nsg41
Nsg42
I00
sg43
S'/home/grogan/Software/Chaste/projects/MicrovesselChaste/src/image/ImageToSurface.hpp'
p851
sg44
I00
sba(iwrapper_utilities.class_data
CppClass
p852
(dp853
g4
Nsg5
(dp854
g7
g8
sg9
g10
sg11
g12
sg13
g14
sg15
g16
sg17
g18
sg19
g20
sS'*'
g21
sg22
g23
sg24
g23
sg25
g26
sg27
g23
ssg28
S'NetworkToImage'
p855
sg30
I00
sg31
I00
sg32
Nsg33
g840
sg35
I01
sg36
I01
sg37
I00
sg38
Nsg39
g106
sg40
Nsg41
Nsg42
I00
sg43
S'/home/grogan/Software/Chaste/projects/MicrovesselChaste/src/image/NetworkToImage.hpp'
p856
sg44
I00
sba.